Certificate:
    Data:
        Version: 3 (0x2)
        Serial Number: 2 (0x2)
        Signature Algorithm: sha256WithRSAEncryption
        Issuer: C=CH, O=HEIG-VD, CN=Fullemann-TLS
        Validity
            Not Before: Jun 13 11:20:32 2025 GMT
            Not After : Jun 13 11:20:32 2027 GMT
        Subject: C=CH, O=HEIG-VD, CN=Fullemann-TLS
        Subject Public Key Info:
            Public Key Algorithm: rsaEncryption
                Public-Key: (1024 bit)
                Modulus:
                    00:96:aa:85:de:a9:f3:96:33:a9:54:bd:a6:b5:fd:
                    5e:59:ce:0f:48:e3:12:e6:a5:43:79:65:5f:9d:05:
                    03:fc:e5:cc:af:48:be:85:97:8b:1f:fd:ef:e1:73:
                    c6:3a:c9:77:b0:86:2a:43:a0:75:38:9b:98:d5:e5:
                    12:6a:a8:7a:93:0c:11:6a:5c:4e:3b:d5:1f:2c:0b:
                    9d:a4:45:e8:84:30:19:b4:c9:41:5e:53:35:2b:02:
                    26:95:24:a2:3b:e4:83:49:71:17:1e:a3:23:78:ea:
                    31:bc:de:9b:75:af:e1:a4:04:7f:11:a1:cf:28:66:
                    70:ea:cd:05:a3:66:20:fc:0f
                Exponent: 65537 (0x10001)
        X509v3 extensions:
            X509v3 Key Usage: critical
                Digital Signature, Key Encipherment
            X509v3 Basic Constraints: 
                CA:FALSE
            X509v3 Extended Key Usage: 
                TLS Web Server Authentication, TLS Web Client Authentication
            X509v3 Subject Key Identifier: 
                D5:67:81:F3:81:DD:4B:7F:B6:5E:CD:98:B8:50:DE:C5:AB:B4:C4:CB
            X509v3 Authority Key Identifier: 
                E4:C6:62:82:E5:92:9A:95:A1:4C:4F:29:6C:D0:5C:B4:6F:75:A0:C8
            X509v3 Subject Alternative Name: 
                IP Address:10.190.130.28
    Signature Algorithm: sha256WithRSAEncryption
    Signature Value:
        20:15:25:3e:c0:34:82:96:60:2b:0c:0b:b7:2b:96:d1:92:15:
        8c:c6:02:a2:a9:b6:06:20:ca:2e:55:7a:82:4f:3b:28:50:1a:
        57:e1:8b:cb:06:10:4b:5b:a7:a4:b8:89:54:ff:9d:59:f5:26:
        71:a9:40:44:7b:d8:9e:02:60:ff:59:e6:0f:a7:aa:4a:d7:9a:
        47:6e:6c:e0:2b:8d:d3:ee:8e:4e:d0:83:45:00:23:e0:52:69:
        89:ab:72:a7:a1:32:cb:8c:32:07:93:38:99:25:84:5c:bc:78:
        e4:3d:24:c9:f2:55:d1:73:bf:62:79:78:60:e0:a7:7a:ef:bd:
        94:a0
-----BEGIN CERTIFICATE-----
MIICczCCAdygAwIBAgIBAjANBgkqhkiG9w0BAQsFADA3MQswCQYDVQQGEwJDSDEQ
MA4GA1UECgwHSEVJRy1WRDEWMBQGA1UEAwwNRnVsbGVtYW5uLVRMUzAeFw0yNTA2
MTMxMTIwMzJaFw0yNzA2MTMxMTIwMzJaMDcxCzAJBgNVBAYTAkNIMRAwDgYDVQQK
DAdIRUlHLVZEMRYwFAYDVQQDDA1GdWxsZW1hbm4tVExTMIGfMA0GCSqGSIb3DQEB
AQUAA4GNADCBiQKBgQCWqoXeqfOWM6lUvaa1/V5Zzg9I4xLmpUN5ZV+dBQP85cyv
SL6Fl4sf/e/hc8Y6yXewhipDoHU4m5jV5RJqqHqTDBFqXE471R8sC52kReiEMBm0
yUFeUzUrAiaVJKI75INJcRceoyN46jG83pt1r+GkBH8Roc8oZnDqzQWjZiD8DwID
AQABo4GOMIGLMA4GA1UdDwEB/wQEAwIFoDAJBgNVHRMEAjAAMB0GA1UdJQQWMBQG
CCsGAQUFBwMBBggrBgEFBQcDAjAdBgNVHQ4EFgQU1WeB84HdS3+2Xs2YuFDexau0
xMswHwYDVR0jBBgwFoAU5MZiguWSmpWhTE8pbNBctG91oMgwDwYDVR0RBAgwBocE
Cr6CHDANBgkqhkiG9w0BAQsFAAOBgQAgFSU+wDSClmArDAu3K5bRkhWMxgKiqbYG
IMouVXqCTzsoUBpX4YvLBhBLW6ekuIlU/51Z9SZxqUBEe9ieAmD/WeYPp6pK15pH
bmzgK43T7o5O0INFACPgUmmJq3KnoTLLjDIHkziZJYRcvHjkPSTJ8lXRc79ieXhg
4Kd6772UoA==
-----END CERTIFICATE-----
