Certificate:
    Data:
        Version: 3 (0x2)
        Serial Number: 3 (0x3)
        Signature Algorithm: sha256WithRSAEncryption
        Issuer: C=CH, O=HEIG-VD, CN=Fullemann-TLS
        Validity
            Not Before: Jun 13 11:50:52 2025 GMT
            Not After : Jun 13 11:50:52 2027 GMT
        Subject: C=CH, O=HEIG-VD, CN=IP
        Subject Public Key Info:
            Public Key Algorithm: rsaEncryption
                Public-Key: (1024 bit)
                Modulus:
                    00:c3:b0:77:d3:06:92:73:16:15:e0:04:0c:ef:d3:
                    9a:93:bb:f4:4c:b3:b4:e8:28:57:2f:32:17:fb:67:
                    4b:ce:52:f4:71:90:15:5f:56:90:d3:78:2d:73:1c:
                    27:29:30:c1:3f:62:b8:07:11:4e:4b:1f:8d:e7:e2:
                    38:c4:04:2f:17:f4:6d:71:39:46:63:a4:f6:60:9e:
                    91:0f:04:e2:08:c6:9f:37:87:1d:a6:ef:2b:e7:70:
                    78:0f:61:ac:f2:d1:c9:db:68:3e:48:8b:79:6d:56:
                    2f:eb:a1:e0:6d:da:a0:80:f0:68:8f:bc:ea:f3:a3:
                    df:76:7a:7b:59:26:57:2c:47
                Exponent: 65537 (0x10001)
        X509v3 extensions:
            X509v3 Key Usage: critical
                Digital Signature, Key Encipherment
            X509v3 Basic Constraints: 
                CA:FALSE
            X509v3 Extended Key Usage: 
                TLS Web Server Authentication, TLS Web Client Authentication
            X509v3 Subject Key Identifier: 
                E8:A3:5B:11:FE:76:FB:0F:E0:AF:CD:36:5F:75:BB:46:1C:64:96:09
            X509v3 Authority Key Identifier: 
                1A:9F:67:AE:92:78:CE:57:8C:1F:6D:B3:7A:EC:14:94:FC:43:9B:D6
            X509v3 Subject Alternative Name: 
                IP Address:10.190.130.28
    Signature Algorithm: sha256WithRSAEncryption
    Signature Value:
        72:90:b1:f2:44:a7:f2:ae:91:0f:d2:a4:9e:e2:da:e5:6f:8d:
        be:1d:97:a4:9b:e5:62:81:27:3d:81:6c:63:53:75:bf:bf:9c:
        08:ab:f0:37:23:9a:af:de:87:4b:44:ed:18:47:79:14:28:0d:
        4b:44:f1:bc:85:dc:60:25:26:d6:af:7c:40:bb:8d:7d:99:19:
        31:74:f3:30:40:68:c6:48:03:eb:f6:9c:67:bf:4c:01:5d:18:
        60:ca:46:a0:a5:b5:e3:cb:e9:12:2e:d5:57:87:51:0c:be:e9:
        e3:86:dc:37:91:b4:8c:4b:0b:6b:6e:5a:af:ba:fd:26:5c:d8:
        5a:63
-----BEGIN CERTIFICATE-----
MIICaDCCAdGgAwIBAgIBAzANBgkqhkiG9w0BAQsFADA3MQswCQYDVQQGEwJDSDEQ
MA4GA1UECgwHSEVJRy1WRDEWMBQGA1UEAwwNRnVsbGVtYW5uLVRMUzAeFw0yNTA2
MTMxMTUwNTJaFw0yNzA2MTMxMTUwNTJaMCwxCzAJBgNVBAYTAkNIMRAwDgYDVQQK
DAdIRUlHLVZEMQswCQYDVQQDDAJJUDCBnzANBgkqhkiG9w0BAQEFAAOBjQAwgYkC
gYEAw7B30waScxYV4AQM79Oak7v0TLO06ChXLzIX+2dLzlL0cZAVX1aQ03gtcxwn
KTDBP2K4BxFOSx+N5+I4xAQvF/RtcTlGY6T2YJ6RDwTiCMafN4cdpu8r53B4D2Gs
8tHJ22g+SIt5bVYv66HgbdqggPBoj7zq86Pfdnp7WSZXLEcCAwEAAaOBjjCBizAO
BgNVHQ8BAf8EBAMCBaAwCQYDVR0TBAIwADAdBgNVHSUEFjAUBggrBgEFBQcDAQYI
KwYBBQUHAwIwHQYDVR0OBBYEFOijWxH+dvsP4K/NNl91u0YcZJYJMB8GA1UdIwQY
MBaAFBqfZ66SeM5XjB9ts3rsFJT8Q5vWMA8GA1UdEQQIMAaHBAq+ghwwDQYJKoZI
hvcNAQELBQADgYEAcpCx8kSn8q6RD9KknuLa5W+Nvh2XpJvlYoEnPYFsY1N1v7+c
CKvwNyOar96HS0TtGEd5FCgNS0TxvIXcYCUm1q98QLuNfZkZMXTzMEBoxkgD6/ac
Z79MAV0YYMpGoKW148vpEi7VV4dRDL7p44bcN5G0jEsLa25ar7r9JlzYWmM=
-----END CERTIFICATE-----
