Certificate:
    Data:
        Version: 3 (0x2)
        Serial Number: 4 (0x4)
        Signature Algorithm: sha256WithRSAEncryption
        Issuer: C=CH, O=HEIG-VD, CN=Fullemann-TLS
        Validity
            Not Before: Jun 13 11:59:02 2025 GMT
            Not After : Jun 13 11:59:02 2027 GMT
        Subject: C=CH, O=HEIG-VD, CN=Fullemann-TLS
        Subject Public Key Info:
            Public Key Algorithm: rsaEncryption
                Public-Key: (1024 bit)
                Modulus:
                    00:b4:c3:53:38:71:e8:3a:2b:f7:81:06:b8:c6:d5:
                    7e:99:86:ab:57:5c:93:bf:f9:ad:e3:45:ae:65:db:
                    e9:08:be:61:92:a8:c6:52:af:d4:bd:fe:9c:bd:c3:
                    14:fa:70:d2:14:b8:78:74:b0:86:d5:f4:ec:12:05:
                    e9:66:ba:77:52:31:dc:75:ca:31:15:e8:b7:f0:52:
                    5a:2f:bc:4d:69:e4:ea:c1:c3:5d:2e:03:16:12:01:
                    d9:14:6a:eb:98:53:e8:b9:5f:03:36:d2:ed:13:c4:
                    4b:00:98:7c:ea:76:f0:df:8b:38:3f:78:ad:1e:46:
                    09:aa:51:c3:2c:33:ee:a7:5d
                Exponent: 65537 (0x10001)
        X509v3 extensions:
            X509v3 Key Usage: critical
                Digital Signature, Key Encipherment
            X509v3 Basic Constraints: 
                CA:FALSE
            X509v3 Extended Key Usage: 
                TLS Web Server Authentication, TLS Web Client Authentication
            X509v3 Subject Key Identifier: 
                97:A6:23:51:DF:77:3B:26:2F:2E:97:49:CF:A1:45:63:13:27:B5:46
            X509v3 Authority Key Identifier: 
                1A:9F:67:AE:92:78:CE:57:8C:1F:6D:B3:7A:EC:14:94:FC:43:9B:D6
            X509v3 Subject Alternative Name: 
                IP Address:10.190.130.28
    Signature Algorithm: sha256WithRSAEncryption
    Signature Value:
        28:b4:e0:1e:82:b5:63:ab:f5:25:d8:55:a9:26:72:c5:ed:4c:
        05:9e:08:55:93:f6:b5:1b:f0:74:f9:e8:ff:c1:f1:b4:2f:ee:
        aa:eb:85:58:e8:30:8b:bd:18:8a:ef:c4:e1:eb:31:f4:c0:f6:
        74:fe:5a:4f:76:d1:f8:02:5d:b8:ef:bf:31:44:d5:45:b2:c4:
        72:ef:47:ca:2e:6c:ae:f4:d3:d4:6d:91:c4:d7:db:35:0d:61:
        77:ac:12:93:f3:72:cc:e8:d2:4b:36:c0:8f:7a:e5:cb:c0:0a:
        6f:9d:73:b5:f5:c4:7b:49:3e:f0:8d:a7:8f:b2:bb:c7:ac:b5:
        c4:a5
-----BEGIN CERTIFICATE-----
MIICczCCAdygAwIBAgIBBDANBgkqhkiG9w0BAQsFADA3MQswCQYDVQQGEwJDSDEQ
MA4GA1UECgwHSEVJRy1WRDEWMBQGA1UEAwwNRnVsbGVtYW5uLVRMUzAeFw0yNTA2
MTMxMTU5MDJaFw0yNzA2MTMxMTU5MDJaMDcxCzAJBgNVBAYTAkNIMRAwDgYDVQQK
DAdIRUlHLVZEMRYwFAYDVQQDDA1GdWxsZW1hbm4tVExTMIGfMA0GCSqGSIb3DQEB
AQUAA4GNADCBiQKBgQC0w1M4ceg6K/eBBrjG1X6ZhqtXXJO/+a3jRa5l2+kIvmGS
qMZSr9S9/py9wxT6cNIUuHh0sIbV9OwSBelmundSMdx1yjEV6LfwUlovvE1p5OrB
w10uAxYSAdkUauuYU+i5XwM20u0TxEsAmHzqdvDfizg/eK0eRgmqUcMsM+6nXQID
AQABo4GOMIGLMA4GA1UdDwEB/wQEAwIFoDAJBgNVHRMEAjAAMB0GA1UdJQQWMBQG
CCsGAQUFBwMBBggrBgEFBQcDAjAdBgNVHQ4EFgQUl6YjUd93OyYvLpdJz6FFYxMn
tUYwHwYDVR0jBBgwFoAUGp9nrpJ4zleMH22zeuwUlPxDm9YwDwYDVR0RBAgwBocE
Cr6CHDANBgkqhkiG9w0BAQsFAAOBgQAotOAegrVjq/Ul2FWpJnLF7UwFnghVk/a1
G/B0+ej/wfG0L+6q64VY6DCLvRiK78Th6zH0wPZ0/lpPdtH4Al24778xRNVFssRy
70fKLmyu9NPUbZHE19s1DWF3rBKT83LM6NJLNsCPeuXLwApvnXO19cR7ST7wjaeP
srvHrLXEpQ==
-----END CERTIFICATE-----
