Certificate:
    Data:
        Version: 3 (0x2)
        Serial Number: 5 (0x5)
        Signature Algorithm: sha256WithRSAEncryption
        Issuer: C=CH, O=HEIG-VD, CN=Fullemann-TLS
        Validity
            Not Before: Jun 13 18:24:32 2025 GMT
            Not After : Jun 13 18:24:32 2027 GMT
        Subject: C=CH, O=HEIG-VD, CN=IP
        Subject Public Key Info:
            Public Key Algorithm: rsaEncryption
                Public-Key: (1024 bit)
                Modulus:
                    00:db:b0:92:50:b6:73:07:75:30:0f:34:47:97:7c:
                    7b:95:4d:47:53:a2:e6:f1:18:58:d5:a4:d8:4f:b2:
                    a1:a5:61:16:29:ac:b0:a5:71:80:30:b0:a0:50:58:
                    70:7d:74:f0:56:5a:2b:3d:03:bd:74:d8:05:7d:42:
                    4f:8d:b6:d1:f9:6f:b7:1c:04:ed:c9:8a:7d:45:a1:
                    23:da:54:3d:c8:eb:3e:4c:41:21:fa:19:1e:cb:07:
                    33:37:e0:58:d4:52:ad:f2:e7:4d:43:fc:7a:9c:8d:
                    69:32:60:1c:6a:53:a8:f6:b4:28:58:a3:2e:1e:b2:
                    c4:9d:9d:58:74:5b:de:6d:05
                Exponent: 65537 (0x10001)
        X509v3 extensions:
            X509v3 Key Usage: critical
                Digital Signature, Key Encipherment
            X509v3 Basic Constraints: 
                CA:FALSE
            X509v3 Extended Key Usage: 
                TLS Web Server Authentication, TLS Web Client Authentication
            X509v3 Subject Key Identifier: 
                03:9E:2A:9C:93:16:C3:26:5A:8F:91:36:14:AE:3A:31:22:73:EA:8C
            X509v3 Authority Key Identifier: 
                84:1B:47:3F:E2:2B:4C:83:CF:6C:56:07:94:60:17:C6:DA:BB:D3:67
            X509v3 Subject Alternative Name: 
                IP Address:10.190.130.28
    Signature Algorithm: sha256WithRSAEncryption
    Signature Value:
        62:71:72:d5:e9:9b:97:01:63:9e:87:79:79:c3:26:0d:f3:44:
        c6:6b:6c:7a:ad:20:e3:24:9f:28:55:df:f8:87:08:71:87:01:
        b2:48:6b:14:5f:89:2b:f6:91:3e:30:7e:af:dd:37:2f:27:16:
        f8:61:62:4a:8b:10:d9:1f:f1:51:9b:5a:67:2d:55:be:33:67:
        e7:67:35:19:b9:f2:22:95:c5:75:7b:8e:22:41:fb:a4:e4:3c:
        46:0d:4f:6c:e7:21:35:13:6f:bc:90:73:ca:2a:b0:25:ec:58:
        03:12:17:98:55:7f:c7:60:b9:15:24:c3:f8:54:ee:e0:08:e1:
        a6:6c
-----BEGIN CERTIFICATE-----
MIICaDCCAdGgAwIBAgIBBTANBgkqhkiG9w0BAQsFADA3MQswCQYDVQQGEwJDSDEQ
MA4GA1UECgwHSEVJRy1WRDEWMBQGA1UEAwwNRnVsbGVtYW5uLVRMUzAeFw0yNTA2
MTMxODI0MzJaFw0yNzA2MTMxODI0MzJaMCwxCzAJBgNVBAYTAkNIMRAwDgYDVQQK
DAdIRUlHLVZEMQswCQYDVQQDDAJJUDCBnzANBgkqhkiG9w0BAQEFAAOBjQAwgYkC
gYEA27CSULZzB3UwDzRHl3x7lU1HU6Lm8RhY1aTYT7KhpWEWKaywpXGAMLCgUFhw
fXTwVlorPQO9dNgFfUJPjbbR+W+3HATtyYp9RaEj2lQ9yOs+TEEh+hkeywczN+BY
1FKt8udNQ/x6nI1pMmAcalOo9rQoWKMuHrLEnZ1YdFvebQUCAwEAAaOBjjCBizAO
BgNVHQ8BAf8EBAMCBaAwCQYDVR0TBAIwADAdBgNVHSUEFjAUBggrBgEFBQcDAQYI
KwYBBQUHAwIwHQYDVR0OBBYEFAOeKpyTFsMmWo+RNhSuOjEic+qMMB8GA1UdIwQY
MBaAFIQbRz/iK0yDz2xWB5RgF8bau9NnMA8GA1UdEQQIMAaHBAq+ghwwDQYJKoZI
hvcNAQELBQADgYEAYnFy1emblwFjnod5ecMmDfNExmtseq0g4ySfKFXf+IcIcYcB
skhrFF+JK/aRPjB+r903LycW+GFiSosQ2R/xUZtaZy1VvjNn52c1GbnyIpXFdXuO
IkH7pOQ8Rg1PbOchNRNvvJBzyiqwJexYAxIXmFV/x2C5FSTD+FTu4Ajhpmw=
-----END CERTIFICATE-----
