Certificate:
    Data:
        Version: 3 (0x2)
        Serial Number: 6 (0x6)
        Signature Algorithm: sha256WithRSAEncryption
        Issuer: C=CH, O=HEIG-VD, CN=Fullemann-TLS
        Validity
            Not Before: Jun 13 18:25:51 2025 GMT
            Not After : Jun 13 18:25:51 2027 GMT
        Subject: C=CH, O=HEIG-VD, CN=10.190.130.28
        Subject Public Key Info:
            Public Key Algorithm: rsaEncryption
                Public-Key: (1024 bit)
                Modulus:
                    00:c6:d3:bf:41:dc:b1:07:b9:00:78:2a:e0:94:1f:
                    e5:fd:a4:f4:ad:b7:32:c7:a7:2b:28:40:98:41:6c:
                    dc:86:18:d8:e3:ea:73:41:49:ec:63:d8:41:02:13:
                    3e:b1:74:b5:99:7a:9e:f7:13:35:36:61:04:4e:89:
                    b6:c3:f1:4c:e6:f2:a6:cf:76:8b:f8:94:58:1d:7a:
                    30:de:99:03:94:b1:77:46:f5:71:b7:a5:b4:e6:9e:
                    4d:67:81:51:02:97:7f:a7:65:03:d6:10:e5:63:4d:
                    d4:60:c8:7c:b9:5b:7c:4d:52:5f:96:7a:a9:a8:6a:
                    e8:ee:11:d7:36:2f:71:aa:c3
                Exponent: 65537 (0x10001)
        X509v3 extensions:
            X509v3 Key Usage: critical
                Digital Signature, Key Encipherment
            X509v3 Basic Constraints: 
                CA:FALSE
            X509v3 Extended Key Usage: 
                TLS Web Server Authentication, TLS Web Client Authentication
            X509v3 Subject Key Identifier: 
                39:2C:49:AB:6F:2C:9A:D9:51:13:C6:72:2C:4C:81:C0:BE:3D:7B:04
            X509v3 Authority Key Identifier: 
                84:1B:47:3F:E2:2B:4C:83:CF:6C:56:07:94:60:17:C6:DA:BB:D3:67
            X509v3 Subject Alternative Name: 
                IP Address:10.190.130.28
    Signature Algorithm: sha256WithRSAEncryption
    Signature Value:
        6b:16:96:5b:0d:76:0d:00:91:27:6e:5d:25:27:e5:5c:f6:51:
        33:e3:15:16:c8:9f:a8:48:39:a3:99:7e:8a:c2:30:ef:b5:c5:
        ed:e2:3c:17:c2:fb:65:8b:2a:e1:85:33:58:d7:15:ac:d1:1c:
        9b:b3:1d:6f:29:ba:98:55:86:01:01:32:21:ea:18:35:93:b6:
        07:5f:5f:8f:b1:ba:b9:09:f7:2b:ee:ce:02:83:e8:0f:30:0a:
        26:d9:59:a7:26:61:37:d6:24:68:07:ea:38:e4:05:de:37:7f:
        6d:40:1b:bd:30:d3:81:19:ec:61:f8:29:2f:37:5f:62:2f:22:
        ce:8d
-----BEGIN CERTIFICATE-----
MIICczCCAdygAwIBAgIBBjANBgkqhkiG9w0BAQsFADA3MQswCQYDVQQGEwJDSDEQ
MA4GA1UECgwHSEVJRy1WRDEWMBQGA1UEAwwNRnVsbGVtYW5uLVRMUzAeFw0yNTA2
MTMxODI1NTFaFw0yNzA2MTMxODI1NTFaMDcxCzAJBgNVBAYTAkNIMRAwDgYDVQQK
DAdIRUlHLVZEMRYwFAYDVQQDDA0xMC4xOTAuMTMwLjI4MIGfMA0GCSqGSIb3DQEB
AQUAA4GNADCBiQKBgQDG079B3LEHuQB4KuCUH+X9pPSttzLHpysoQJhBbNyGGNjj
6nNBSexj2EECEz6xdLWZep73EzU2YQROibbD8Uzm8qbPdov4lFgdejDemQOUsXdG
9XG3pbTmnk1ngVECl3+nZQPWEOVjTdRgyHy5W3xNUl+WeqmoaujuEdc2L3GqwwID
AQABo4GOMIGLMA4GA1UdDwEB/wQEAwIFoDAJBgNVHRMEAjAAMB0GA1UdJQQWMBQG
CCsGAQUFBwMBBggrBgEFBQcDAjAdBgNVHQ4EFgQUOSxJq28smtlRE8ZyLEyBwL49
ewQwHwYDVR0jBBgwFoAUhBtHP+IrTIPPbFYHlGAXxtq702cwDwYDVR0RBAgwBocE
Cr6CHDANBgkqhkiG9w0BAQsFAAOBgQBrFpZbDXYNAJEnbl0lJ+Vc9lEz4xUWyJ+o
SDmjmX6KwjDvtcXt4jwXwvtliyrhhTNY1xWs0Rybsx1vKbqYVYYBATIh6hg1k7YH
X1+Psbq5Cfcr7s4Cg+gPMAom2VmnJmE31iRoB+o45AXeN39tQBu9MNOBGexh+Ckv
N19iLyLOjQ==
-----END CERTIFICATE-----
