Certificate:
    Data:
        Version: 3 (0x2)
        Serial Number: 7 (0x7)
        Signature Algorithm: sha256WithRSAEncryption
        Issuer: C=CH, O=HEIG-VD, CN=Fullemann-TLS
        Validity
            Not Before: Jun 13 18:38:10 2025 GMT
            Not After : Jun 13 18:38:10 2027 GMT
        Subject: C=CH, O=HEIG-VD, CN=10.190.133.59
        Subject Public Key Info:
            Public Key Algorithm: rsaEncryption
                Public-Key: (1024 bit)
                Modulus:
                    00:bf:0f:1f:c6:93:18:29:46:b1:3a:de:7e:c1:13:
                    39:07:8f:2a:c3:53:99:8e:26:b5:b5:b6:71:63:7c:
                    80:93:f6:34:b1:aa:b3:ae:9a:09:a4:55:9e:9b:c7:
                    92:65:9f:3c:8e:c9:51:e8:ec:ae:d8:eb:b9:cb:30:
                    50:a1:91:02:cd:77:8d:4a:3f:57:1e:5a:a6:d8:5d:
                    60:d5:37:4e:ef:ab:ec:29:25:4c:2c:ba:83:0b:1b:
                    c7:77:ab:03:3e:b9:b9:0d:e2:2c:1a:58:8c:3d:20:
                    df:d8:5d:fb:52:6b:54:9f:f6:31:5a:f2:ea:4c:93:
                    8c:fa:cf:eb:a7:87:f4:67:a7
                Exponent: 65537 (0x10001)
        X509v3 extensions:
            X509v3 Key Usage: critical
                Digital Signature, Key Encipherment
            X509v3 Basic Constraints: 
                CA:FALSE
            X509v3 Extended Key Usage: 
                TLS Web Server Authentication, TLS Web Client Authentication
            X509v3 Subject Key Identifier: 
                1B:E4:7F:60:06:4E:B8:CE:7D:8A:25:56:15:49:22:53:4F:20:4C:DA
            X509v3 Authority Key Identifier: 
                E5:08:D6:4B:48:60:1F:FD:3B:71:F9:B7:64:30:EF:9F:7A:56:68:59
            X509v3 Subject Alternative Name: 
                IP Address:10.190.133.59
    Signature Algorithm: sha256WithRSAEncryption
    Signature Value:
        8a:d1:90:77:01:95:1a:bc:0a:6e:23:72:ae:ac:81:2f:1f:58:
        e5:aa:fb:2e:82:cb:e8:82:61:79:6b:6f:2a:33:71:06:87:30:
        58:36:33:d7:48:09:90:9a:c3:56:03:13:29:04:d3:6b:bf:59:
        85:b0:0c:cd:56:21:88:6d:d0:d9:e1:13:b8:56:2e:29:d4:8b:
        da:d6:72:6d:05:02:00:d8:9a:3a:32:63:75:c1:95:5b:0c:1d:
        90:f8:95:55:93:53:47:d6:b5:57:22:b6:5b:44:c7:f2:44:9f:
        64:02:18:b4:46:fa:bf:ef:04:37:7f:55:a3:5f:a0:f4:19:38:
        be:0a
-----BEGIN CERTIFICATE-----
MIICczCCAdygAwIBAgIBBzANBgkqhkiG9w0BAQsFADA3MQswCQYDVQQGEwJDSDEQ
MA4GA1UECgwHSEVJRy1WRDEWMBQGA1UEAwwNRnVsbGVtYW5uLVRMUzAeFw0yNTA2
MTMxODM4MTBaFw0yNzA2MTMxODM4MTBaMDcxCzAJBgNVBAYTAkNIMRAwDgYDVQQK
DAdIRUlHLVZEMRYwFAYDVQQDDA0xMC4xOTAuMTMzLjU5MIGfMA0GCSqGSIb3DQEB
AQUAA4GNADCBiQKBgQC/Dx/GkxgpRrE63n7BEzkHjyrDU5mOJrW1tnFjfICT9jSx
qrOumgmkVZ6bx5JlnzyOyVHo7K7Y67nLMFChkQLNd41KP1ceWqbYXWDVN07vq+wp
JUwsuoMLG8d3qwM+ubkN4iwaWIw9IN/YXftSa1Sf9jFa8upMk4z6z+unh/RnpwID
AQABo4GOMIGLMA4GA1UdDwEB/wQEAwIFoDAJBgNVHRMEAjAAMB0GA1UdJQQWMBQG
CCsGAQUFBwMBBggrBgEFBQcDAjAdBgNVHQ4EFgQUG+R/YAZOuM59iiVWFUkiU08g
TNowHwYDVR0jBBgwFoAU5QjWS0hgH/07cfm3ZDDvn3pWaFkwDwYDVR0RBAgwBocE
Cr6FOzANBgkqhkiG9w0BAQsFAAOBgQCK0ZB3AZUavApuI3KurIEvH1jlqvsugsvo
gmF5a28qM3EGhzBYNjPXSAmQmsNWAxMpBNNrv1mFsAzNViGIbdDZ4RO4Vi4p1Iva
1nJtBQIA2Jo6MmN1wZVbDB2Q+JVVk1NH1rVXIrZbRMfyRJ9kAhi0Rvq/7wQ3f1Wj
X6D0GTi+Cg==
-----END CERTIFICATE-----
