Certificate:
    Data:
        Version: 3 (0x2)
        Serial Number: 8 (0x8)
        Signature Algorithm: sha256WithRSAEncryption
        Issuer: C=CH, O=HEIG-VD, CN=Fullemann-TLS
        Validity
            Not Before: Jun 13 19:06:20 2025 GMT
            Not After : Jun 13 19:06:20 2027 GMT
        Subject: C=CH, O=HEIG-VD, CN=IP
        Subject Public Key Info:
            Public Key Algorithm: rsaEncryption
                Public-Key: (1024 bit)
                Modulus:
                    00:f0:34:6c:0a:c8:62:96:4f:83:b6:2e:dd:08:80:
                    ea:2e:32:be:54:a0:92:1b:da:98:c8:06:c7:5c:12:
                    29:b5:85:c7:0d:12:f3:96:88:6d:b0:29:f5:88:cf:
                    59:0d:0f:c3:c8:f7:17:ee:1e:f4:3c:b1:d0:d1:0e:
                    36:90:7b:8f:42:36:8e:a7:04:5d:4e:7a:62:eb:18:
                    59:7b:60:ad:42:f5:61:70:76:9e:c7:9a:26:d8:bf:
                    69:73:65:01:0a:13:bd:44:71:ba:df:34:0e:37:9f:
                    cc:c4:1c:b7:cb:57:77:4d:a6:26:64:70:2e:cc:c3:
                    da:60:f6:e9:67:0a:bd:97:57
                Exponent: 65537 (0x10001)
        X509v3 extensions:
            X509v3 Key Usage: critical
                Digital Signature, Key Encipherment
            X509v3 Basic Constraints: 
                CA:FALSE
            X509v3 Extended Key Usage: 
                TLS Web Server Authentication, TLS Web Client Authentication
            X509v3 Subject Key Identifier: 
                19:9C:8A:49:9A:91:8C:99:87:53:D9:0C:6D:2F:B1:34:D1:BF:E9:83
            X509v3 Authority Key Identifier: 
                68:05:31:38:27:CD:CD:78:E8:F6:54:05:1B:5B:E9:86:44:B6:60:41
            X509v3 Subject Alternative Name: 
                DNS:secuctfd.iict-heig-vd.in
    Signature Algorithm: sha256WithRSAEncryption
    Signature Value:
        05:44:ae:75:1e:88:0e:e2:ca:75:1d:4a:27:f8:5a:e7:0c:33:
        c3:00:c9:11:28:b8:2a:60:d3:bc:93:42:14:97:1f:25:ae:40:
        9d:56:de:8c:49:dd:5d:9d:1b:8a:2f:ce:dd:c8:74:26:21:db:
        7d:b2:5a:b6:de:87:86:c5:97:dd:c7:77:d1:92:fd:13:ce:e3:
        2e:2f:17:f2:bf:52:cc:8d:ef:68:18:43:8e:0e:67:59:a4:5e:
        68:ad:37:61:c5:30:a3:9a:dc:b5:b0:91:4b:28:73:55:5f:96:
        8a:94:1b:ce:27:39:26:8c:9c:16:67:27:0c:6c:3d:8c:4e:1e:
        97:61
-----BEGIN CERTIFICATE-----
MIICfDCCAeWgAwIBAgIBCDANBgkqhkiG9w0BAQsFADA3MQswCQYDVQQGEwJDSDEQ
MA4GA1UECgwHSEVJRy1WRDEWMBQGA1UEAwwNRnVsbGVtYW5uLVRMUzAeFw0yNTA2
MTMxOTA2MjBaFw0yNzA2MTMxOTA2MjBaMCwxCzAJBgNVBAYTAkNIMRAwDgYDVQQK
DAdIRUlHLVZEMQswCQYDVQQDDAJJUDCBnzANBgkqhkiG9w0BAQEFAAOBjQAwgYkC
gYEA8DRsCshilk+Dti7dCIDqLjK+VKCSG9qYyAbHXBIptYXHDRLzlohtsCn1iM9Z
DQ/DyPcX7h70PLHQ0Q42kHuPQjaOpwRdTnpi6xhZe2CtQvVhcHaex5om2L9pc2UB
ChO9RHG63zQON5/MxBy3y1d3TaYmZHAuzMPaYPbpZwq9l1cCAwEAAaOBojCBnzAO
BgNVHQ8BAf8EBAMCBaAwCQYDVR0TBAIwADAdBgNVHSUEFjAUBggrBgEFBQcDAQYI
KwYBBQUHAwIwHQYDVR0OBBYEFBmcikmakYyZh1PZDG0vsTTRv+mDMB8GA1UdIwQY
MBaAFGgFMTgnzc146PZUBRtb6YZEtmBBMCMGA1UdEQQcMBqCGHNlY3VjdGZkLmlp
Y3QtaGVpZy12ZC5pbjANBgkqhkiG9w0BAQsFAAOBgQAFRK51HogO4sp1HUon+Frn
DDPDAMkRKLgqYNO8k0IUlx8lrkCdVt6MSd1dnRuKL87dyHQmIdt9slq23oeGxZfd
x3fRkv0TzuMuLxfyv1LMje9oGEOODmdZpF5orTdhxTCjmty1sJFLKHNVX5aKlBvO
JzkmjJwWZycMbD2MTh6XYQ==
-----END CERTIFICATE-----
