Certificate:
    Data:
        Version: 3 (0x2)
        Serial Number: 9 (0x9)
        Signature Algorithm: sha256WithRSAEncryption
        Issuer: C=CH, O=HEIG-VD, CN=Fullemann-TLS
        Validity
            Not Before: Jun 13 19:10:54 2025 GMT
            Not After : Jun 13 19:10:54 2027 GMT
        Subject: C=CH, O=HEIG-VD, CN=secuctfd.iict-heig-vd.in
        Subject Public Key Info:
            Public Key Algorithm: rsaEncryption
                Public-Key: (1024 bit)
                Modulus:
                    00:d1:12:26:d3:79:c2:8c:c1:e1:c2:9a:ee:5f:e0:
                    1e:c1:14:95:78:4e:ad:6d:dc:5f:13:c8:83:a4:90:
                    69:ea:32:8c:0a:b1:1b:fa:92:5a:b3:34:42:ca:5a:
                    17:e2:70:89:08:fb:35:19:88:a7:0a:91:a3:0f:0f:
                    cd:a8:0b:02:37:4a:84:d0:8a:bb:da:3d:53:49:d6:
                    a7:4e:4b:9d:f6:58:44:e6:7c:5d:ba:6a:41:e7:14:
                    2d:3a:9d:5e:6c:13:5e:6c:43:ee:8a:9a:e1:05:6b:
                    b4:f8:a2:9d:02:df:84:7b:36:d0:a8:0c:af:0b:32:
                    44:a1:fd:be:dd:93:c6:e2:a9
                Exponent: 65537 (0x10001)
        X509v3 extensions:
            X509v3 Key Usage: critical
                Digital Signature, Key Encipherment
            X509v3 Basic Constraints: 
                CA:FALSE
            X509v3 Extended Key Usage: 
                TLS Web Server Authentication, TLS Web Client Authentication
            X509v3 Subject Key Identifier: 
                FF:07:8D:19:7C:B3:31:A4:38:1C:ED:FB:44:3F:7C:E8:52:76:57:75
            X509v3 Authority Key Identifier: 
                68:05:31:38:27:CD:CD:78:E8:F6:54:05:1B:5B:E9:86:44:B6:60:41
            X509v3 Subject Alternative Name: 
                DNS:secuctfd.iict-heig-vd.in
    Signature Algorithm: sha256WithRSAEncryption
    Signature Value:
        36:5a:c6:58:2d:86:d1:37:63:8a:80:c5:a0:a5:2e:8b:b4:35:
        7c:31:68:3f:a0:1f:51:63:91:cd:bc:e1:ba:15:a1:eb:10:ac:
        13:b3:e4:95:0f:ba:a0:2a:cb:6c:c2:1d:f1:35:da:86:bd:d5:
        0c:69:9c:a9:05:81:fb:f6:b2:45:20:56:68:ec:9c:4c:92:8f:
        cb:3c:d6:90:e0:02:36:8f:1c:d4:a4:3b:b1:5c:36:a4:56:bf:
        10:c3:8d:85:8e:e0:4a:f4:c4:e0:07:c7:bd:b2:b3:09:db:af:
        69:f6:c2:19:d3:1e:7c:b9:37:b8:6c:ef:84:e6:a6:1d:25:da:
        01:81
-----BEGIN CERTIFICATE-----
MIICkjCCAfugAwIBAgIBCTANBgkqhkiG9w0BAQsFADA3MQswCQYDVQQGEwJDSDEQ
MA4GA1UECgwHSEVJRy1WRDEWMBQGA1UEAwwNRnVsbGVtYW5uLVRMUzAeFw0yNTA2
MTMxOTEwNTRaFw0yNzA2MTMxOTEwNTRaMEIxCzAJBgNVBAYTAkNIMRAwDgYDVQQK
DAdIRUlHLVZEMSEwHwYDVQQDDBhzZWN1Y3RmZC5paWN0LWhlaWctdmQuaW4wgZ8w
DQYJKoZIhvcNAQEBBQADgY0AMIGJAoGBANESJtN5wozB4cKa7l/gHsEUlXhOrW3c
XxPIg6SQaeoyjAqxG/qSWrM0QspaF+JwiQj7NRmIpwqRow8PzagLAjdKhNCKu9o9
U0nWp05LnfZYROZ8XbpqQecULTqdXmwTXmxD7oqa4QVrtPiinQLfhHs20KgMrwsy
RKH9vt2TxuKpAgMBAAGjgaIwgZ8wDgYDVR0PAQH/BAQDAgWgMAkGA1UdEwQCMAAw
HQYDVR0lBBYwFAYIKwYBBQUHAwEGCCsGAQUFBwMCMB0GA1UdDgQWBBT/B40ZfLMx
pDgc7ftEP3zoUnZXdTAfBgNVHSMEGDAWgBRoBTE4J83NeOj2VAUbW+mGRLZgQTAj
BgNVHREEHDAaghhzZWN1Y3RmZC5paWN0LWhlaWctdmQuaW4wDQYJKoZIhvcNAQEL
BQADgYEANlrGWC2G0TdjioDFoKUui7Q1fDFoP6AfUWORzbzhuhWh6xCsE7PklQ+6
oCrLbMId8TXahr3VDGmcqQWB+/ayRSBWaOycTJKPyzzWkOACNo8c1KQ7sVw2pFa/
EMONhY7gSvTE4AfHvbKzCduvafbCGdMefLk3uGzvhOamHSXaAYE=
-----END CERTIFICATE-----
