Certificate:
    Data:
        Version: 3 (0x2)
        Serial Number: 10 (0xa)
        Signature Algorithm: sha256WithRSAEncryption
        Issuer: C=CH, O=HEIG-VD, CN=Fullemann-TLS
        Validity
            Not Before: Jun 13 19:13:51 2025 GMT
            Not After : Jun 13 19:13:51 2027 GMT
        Subject: C=CH, O=HEIG-VD, CN=secuctfd.iict-heig-vd.in
        Subject Public Key Info:
            Public Key Algorithm: rsaEncryption
                Public-Key: (1024 bit)
                Modulus:
                    00:d1:12:26:d3:79:c2:8c:c1:e1:c2:9a:ee:5f:e0:
                    1e:c1:14:95:78:4e:ad:6d:dc:5f:13:c8:83:a4:90:
                    69:ea:32:8c:0a:b1:1b:fa:92:5a:b3:34:42:ca:5a:
                    17:e2:70:89:08:fb:35:19:88:a7:0a:91:a3:0f:0f:
                    cd:a8:0b:02:37:4a:84:d0:8a:bb:da:3d:53:49:d6:
                    a7:4e:4b:9d:f6:58:44:e6:7c:5d:ba:6a:41:e7:14:
                    2d:3a:9d:5e:6c:13:5e:6c:43:ee:8a:9a:e1:05:6b:
                    b4:f8:a2:9d:02:df:84:7b:36:d0:a8:0c:af:0b:32:
                    44:a1:fd:be:dd:93:c6:e2:a9
                Exponent: 65537 (0x10001)
        X509v3 extensions:
            X509v3 Key Usage: critical
                Digital Signature, Key Encipherment
            X509v3 Extended Key Usage: 
                TLS Web Server Authentication, TLS Web Client Authentication
            X509v3 Subject Key Identifier: 
                FF:07:8D:19:7C:B3:31:A4:38:1C:ED:FB:44:3F:7C:E8:52:76:57:75
            X509v3 Subject Alternative Name: 
                DNS:secuctfd.iict-heig-vd.in
            X509v3 Authority Key Identifier: 
                68:05:31:38:27:CD:CD:78:E8:F6:54:05:1B:5B:E9:86:44:B6:60:41
    Signature Algorithm: sha256WithRSAEncryption
    Signature Value:
        33:30:05:cc:e4:69:52:21:c3:0c:ca:79:f5:88:7b:75:42:f1:
        48:5d:8f:33:7c:28:6c:bf:90:db:bc:e7:3e:7d:cf:ed:28:66:
        8b:c8:88:4f:20:43:d4:37:eb:05:ed:54:78:fa:49:17:93:05:
        f1:a7:8f:19:2c:9f:84:18:2c:a9:8b:8b:00:3a:08:18:2d:e7:
        2a:0a:4c:a4:9d:f1:73:9c:38:8f:54:ee:3a:3b:ab:79:73:12:
        67:b3:09:1f:a8:ce:0c:be:5b:eb:47:67:8d:c5:e7:fc:b9:11:
        71:f5:d6:05:a0:89:b9:c0:d2:dc:2c:b1:0f:a3:01:39:6e:cc:
        68:4e
-----BEGIN CERTIFICATE-----
MIIChzCCAfCgAwIBAgIBCjANBgkqhkiG9w0BAQsFADA3MQswCQYDVQQGEwJDSDEQ
MA4GA1UECgwHSEVJRy1WRDEWMBQGA1UEAwwNRnVsbGVtYW5uLVRMUzAeFw0yNTA2
MTMxOTEzNTFaFw0yNzA2MTMxOTEzNTFaMEIxCzAJBgNVBAYTAkNIMRAwDgYDVQQK
DAdIRUlHLVZEMSEwHwYDVQQDDBhzZWN1Y3RmZC5paWN0LWhlaWctdmQuaW4wgZ8w
DQYJKoZIhvcNAQEBBQADgY0AMIGJAoGBANESJtN5wozB4cKa7l/gHsEUlXhOrW3c
XxPIg6SQaeoyjAqxG/qSWrM0QspaF+JwiQj7NRmIpwqRow8PzagLAjdKhNCKu9o9
U0nWp05LnfZYROZ8XbpqQecULTqdXmwTXmxD7oqa4QVrtPiinQLfhHs20KgMrwsy
RKH9vt2TxuKpAgMBAAGjgZcwgZQwDgYDVR0PAQH/BAQDAgWgMB0GA1UdJQQWMBQG
CCsGAQUFBwMBBggrBgEFBQcDAjAdBgNVHQ4EFgQU/weNGXyzMaQ4HO37RD986FJ2
V3UwIwYDVR0RBBwwGoIYc2VjdWN0ZmQuaWljdC1oZWlnLXZkLmluMB8GA1UdIwQY
MBaAFGgFMTgnzc146PZUBRtb6YZEtmBBMA0GCSqGSIb3DQEBCwUAA4GBADMwBczk
aVIhwwzKefWIe3VC8UhdjzN8KGy/kNu85z59z+0oZovIiE8gQ9Q36wXtVHj6SReT
BfGnjxksn4QYLKmLiwA6CBgt5yoKTKSd8XOcOI9U7jo7q3lzEmezCR+ozgy+W+tH
Z43F5/y5EXH11gWgibnA0twssQ+jATluzGhO
-----END CERTIFICATE-----
