Certificate:
    Data:
        Version: 3 (0x2)
        Serial Number: 11 (0xb)
        Signature Algorithm: sha256WithRSAEncryption
        Issuer: C=CH, O=HEIG-VD, CN=Fullemann-TLS
        Validity
            Not Before: Jun 13 19:42:01 2025 GMT
            Not After : Jun 13 19:42:01 2027 GMT
        Subject: C=CH, O=HEIG-VD, CN=secuctfd.iict-heig-vd.in
        Subject Public Key Info:
            Public Key Algorithm: rsaEncryption
                Public-Key: (2048 bit)
                Modulus:
                    00:c2:d4:33:e0:2c:3e:32:dc:c7:2f:97:8a:50:a6:
                    03:c2:6e:60:13:78:24:13:77:4d:86:a0:97:55:01:
                    24:d3:a0:02:27:ef:6c:bc:3f:bf:82:53:95:71:bd:
                    ad:a0:9e:87:cb:33:ab:b5:7e:c7:33:be:eb:c5:f6:
                    6b:96:93:8e:03:3d:da:8e:88:0f:2a:0a:24:8a:64:
                    45:c0:1c:af:39:a9:de:31:03:2a:39:bf:84:af:f2:
                    61:2c:e3:13:0c:f8:90:ae:62:8b:d5:c3:b0:46:27:
                    d2:b0:7c:d3:79:28:e0:6a:30:ba:1a:d6:b9:b7:47:
                    9c:23:2b:7c:9e:da:eb:a6:d6:61:e7:fe:f7:db:01:
                    75:c9:ea:a6:64:0a:9a:b2:28:9a:d4:30:b3:c5:a5:
                    ca:2b:60:4a:64:a8:d2:97:de:99:73:a2:0a:01:b3:
                    f7:7e:b6:57:82:01:ca:26:41:00:90:e2:4d:ce:f3:
                    ae:1d:0b:7e:b9:df:2e:1a:ba:58:8a:6a:70:b8:f3:
                    8b:0b:5c:40:55:7f:af:20:66:52:65:95:e1:42:0e:
                    cb:27:ed:15:0c:cc:59:00:26:89:4f:e6:ed:01:d4:
                    34:b4:d4:34:5e:f9:a9:a0:58:53:73:5b:cf:2b:ea:
                    9c:49:08:1e:1a:75:06:6b:5d:7e:ac:2c:41:46:40:
                    fa:bd
                Exponent: 65537 (0x10001)
        X509v3 extensions:
            X509v3 Key Usage: critical
                Digital Signature, Key Encipherment
            X509v3 Extended Key Usage: 
                TLS Web Server Authentication, TLS Web Client Authentication
            X509v3 Subject Key Identifier: 
                91:93:B6:8F:E3:C9:49:54:B4:45:EC:0B:36:95:10:C3:04:8F:DB:48
            X509v3 Subject Alternative Name: 
                DNS:secuctfd.iict-heig-vd.in
            X509v3 Authority Key Identifier: 
                C8:53:4A:A5:94:FC:3E:8C:C4:22:37:BB:78:9B:5D:98:9E:E7:E2:EE
    Signature Algorithm: sha256WithRSAEncryption
    Signature Value:
        94:f2:77:29:29:f4:df:dc:54:c0:81:8e:d3:86:b3:33:e7:03:
        c1:33:34:93:dd:7d:87:62:32:06:ee:b0:c5:19:72:34:6c:4d:
        cd:dd:88:c9:b4:23:1d:fc:42:f3:f6:0c:f3:d8:14:51:21:34:
        56:2e:02:65:92:68:9c:a5:22:90:a8:32:94:0e:5d:5f:b7:97:
        ed:75:b2:66:bd:a0:09:37:74:e7:1c:a1:e6:6b:ad:2b:44:b7:
        a4:7f:68:07:f7:3e:91:c0:e4:a7:8b:a1:5b:6e:a1:ca:51:c6:
        c1:95:a7:4d:67:0f:bf:42:d0:83:38:56:8f:98:b1:90:6e:c6:
        b1:95:b7:32:74:ab:4a:db:eb:33:bb:7f:90:24:08:6d:35:cf:
        7b:cb:76:df:59:94:1c:bb:58:a4:7f:8a:d7:bb:77:ca:a3:c9:
        9d:5d:04:ec:a4:ff:38:5d:74:1d:0a:b9:18:b4:8f:2f:60:a2:
        bd:96:6f:48:56:59:71:d1:ab:b9:f1:0b:02:c4:4f:e6:0a:24:
        d8:d8:69:a8:59:46:f8:d4:14:fb:56:2b:02:ab:11:33:fa:11:
        aa:10:eb:c6:65:85:95:5a:94:f1:3b:f4:cd:45:fe:cf:07:1f:
        38:57:4a:c8:5a:45:5f:d1:3e:a6:af:d4:a1:2f:bc:a2:02:24:
        17:91:75:cf
-----BEGIN CERTIFICATE-----
MIIDjDCCAnSgAwIBAgIBCzANBgkqhkiG9w0BAQsFADA3MQswCQYDVQQGEwJDSDEQ
MA4GA1UECgwHSEVJRy1WRDEWMBQGA1UEAwwNRnVsbGVtYW5uLVRMUzAeFw0yNTA2
MTMxOTQyMDFaFw0yNzA2MTMxOTQyMDFaMEIxCzAJBgNVBAYTAkNIMRAwDgYDVQQK
DAdIRUlHLVZEMSEwHwYDVQQDDBhzZWN1Y3RmZC5paWN0LWhlaWctdmQuaW4wggEi
MA0GCSqGSIb3DQEBAQUAA4IBDwAwggEKAoIBAQDC1DPgLD4y3Mcvl4pQpgPCbmAT
eCQTd02GoJdVASTToAIn72y8P7+CU5Vxva2gnofLM6u1fsczvuvF9muWk44DPdqO
iA8qCiSKZEXAHK85qd4xAyo5v4Sv8mEs4xMM+JCuYovVw7BGJ9KwfNN5KOBqMLoa
1rm3R5wjK3ye2uum1mHn/vfbAXXJ6qZkCpqyKJrUMLPFpcorYEpkqNKX3plzogoB
s/d+tleCAcomQQCQ4k3O864dC3653y4auliKanC484sLXEBVf68gZlJlleFCDssn
7RUMzFkAJolP5u0B1DS01DRe+amgWFNzW88r6pxJCB4adQZrXX6sLEFGQPq9AgMB
AAGjgZcwgZQwDgYDVR0PAQH/BAQDAgWgMB0GA1UdJQQWMBQGCCsGAQUFBwMBBggr
BgEFBQcDAjAdBgNVHQ4EFgQUkZO2j+PJSVS0RewLNpUQwwSP20gwIwYDVR0RBBww
GoIYc2VjdWN0ZmQuaWljdC1oZWlnLXZkLmluMB8GA1UdIwQYMBaAFMhTSqWU/D6M
xCI3u3ibXZie5+LuMA0GCSqGSIb3DQEBCwUAA4IBAQCU8ncpKfTf3FTAgY7ThrMz
5wPBMzST3X2HYjIG7rDFGXI0bE3N3YjJtCMd/ELz9gzz2BRRITRWLgJlkmicpSKQ
qDKUDl1ft5ftdbJmvaAJN3TnHKHma60rRLekf2gH9z6RwOSni6FbbqHKUcbBladN
Zw+/QtCDOFaPmLGQbsaxlbcydKtK2+szu3+QJAhtNc97y3bfWZQcu1ikf4rXu3fK
o8mdXQTspP84XXQdCrkYtI8vYKK9lm9IVllx0au58QsCxE/mCiTY2GmoWUb41BT7
VisCqxEz+hGqEOvGZYWVWpTxO/TNRf7PBx84V0rIWkVf0T6mr9ShL7yiAiQXkXXP
-----END CERTIFICATE-----
