Certificate:
    Data:
        Version: 3 (0x2)
        Serial Number: 12 (0xc)
        Signature Algorithm: sha256WithRSAEncryption
        Issuer: C=CH, O=HEIG-VD, CN=Fullemann-TLS
        Validity
            Not Before: Jun 15 11:15:43 2025 GMT
            Not After : Sep 23 11:15:43 2025 GMT
        Subject: C=CH, O=HEIG-VD, CN=secuctfd.iict-heig-vd.in
        Subject Public Key Info:
            Public Key Algorithm: rsaEncryption
                Public-Key: (2048 bit)
                Modulus:
                    00:a0:bb:fa:14:1c:90:e6:d6:d7:73:8a:0c:45:95:
                    8d:0a:a2:73:8f:28:13:ee:62:76:32:9d:1f:60:07:
                    d9:77:99:cc:0f:7a:79:9f:21:44:be:78:df:03:b7:
                    86:80:00:1b:c0:73:f5:d3:95:b3:af:d1:38:be:39:
                    e2:b8:e1:3d:0e:96:56:a7:69:33:99:1f:0a:ef:90:
                    d7:67:e4:38:60:61:d1:74:e7:98:0b:e0:ef:a4:1d:
                    a1:ac:a7:ef:07:75:a0:07:29:72:c0:fa:19:fc:45:
                    9a:d0:3d:3d:ff:74:8a:79:1e:b6:15:e9:66:48:07:
                    c6:8a:0a:df:f3:1b:d6:62:04:ee:d3:27:3f:b4:47:
                    2e:8f:e8:76:bc:78:52:03:0e:83:5b:cd:89:13:5a:
                    39:d5:35:54:9f:6e:cb:f7:5b:76:1f:9b:d1:aa:85:
                    e4:db:73:7b:fe:e8:70:2d:5e:ba:b1:d1:2b:fc:59:
                    53:24:ef:05:78:df:89:a5:74:d1:5a:e2:9e:1d:26:
                    1f:4b:59:f2:be:ab:72:dc:cb:33:a5:62:c4:ff:0b:
                    10:f1:a7:75:dc:98:a7:4b:4a:72:8d:09:0d:47:a6:
                    50:99:07:71:6c:e5:64:5c:af:cd:d6:18:bf:2a:a5:
                    a5:ce:a4:98:96:16:19:b4:45:c9:d1:c4:95:e8:b6:
                    20:4d
                Exponent: 65537 (0x10001)
        X509v3 extensions:
            X509v3 Key Usage: critical
                Digital Signature, Key Encipherment
            X509v3 Extended Key Usage: 
                TLS Web Server Authentication, TLS Web Client Authentication
            X509v3 Subject Key Identifier: 
                F2:C4:22:AA:BA:EC:55:D8:EB:E0:CD:A2:01:76:65:22:CF:88:D4:52
            X509v3 Subject Alternative Name: 
                DNS:secuctfd.iict-heig-vd.in
            X509v3 Authority Key Identifier: 
                A9:E5:10:91:38:79:9E:95:99:B2:DF:8A:A0:F8:70:29:9A:BB:D3:74
    Signature Algorithm: sha256WithRSAEncryption
    Signature Value:
        4a:ad:d4:15:ee:68:bb:49:b7:70:27:79:15:19:b3:ca:70:ac:
        4e:14:4d:82:12:4c:ff:8f:89:29:f0:47:2c:5d:48:58:24:8f:
        f4:61:bb:ea:82:fe:d6:95:63:13:fe:d3:5b:65:be:db:68:cf:
        29:78:6b:94:a4:97:8e:93:f0:28:da:1e:b0:8b:71:ef:3a:06:
        8a:e7:0e:12:f8:62:67:e5:b4:95:04:8b:b7:8f:65:e3:6f:e5:
        45:2d:3a:cc:71:35:88:23:93:ee:02:92:12:74:73:e5:1c:72:
        90:35:47:1a:e6:3a:97:80:22:04:86:0f:c9:9c:99:ac:2a:af:
        6b:07:78:38:41:8b:b0:4f:2d:5d:ed:24:8a:b1:53:a3:8c:f1:
        54:08:6b:34:01:53:fe:1b:ee:8e:97:6d:93:70:ed:b1:7b:51:
        02:e2:19:c1:2c:28:2a:eb:35:bd:a2:97:47:30:4e:b1:ae:a3:
        43:6c:86:a9:e8:dc:ee:8e:95:09:9b:81:70:67:c2:cb:00:2d:
        d5:53:f1:d3:22:34:90:84:25:f8:b3:a4:ef:fa:79:05:87:23:
        55:f0:16:cd:5f:e1:9e:92:39:6f:8f:2f:a3:8b:6e:97:61:d8:
        68:c3:92:01:e5:1d:8b:93:ad:4b:6b:e4:87:78:cd:3e:2f:0b:
        d5:43:9a:ba
-----BEGIN CERTIFICATE-----
MIIDjDCCAnSgAwIBAgIBDDANBgkqhkiG9w0BAQsFADA3MQswCQYDVQQGEwJDSDEQ
MA4GA1UECgwHSEVJRy1WRDEWMBQGA1UEAwwNRnVsbGVtYW5uLVRMUzAeFw0yNTA2
MTUxMTE1NDNaFw0yNTA5MjMxMTE1NDNaMEIxCzAJBgNVBAYTAkNIMRAwDgYDVQQK
DAdIRUlHLVZEMSEwHwYDVQQDDBhzZWN1Y3RmZC5paWN0LWhlaWctdmQuaW4wggEi
MA0GCSqGSIb3DQEBAQUAA4IBDwAwggEKAoIBAQCgu/oUHJDm1tdzigxFlY0KonOP
KBPuYnYynR9gB9l3mcwPenmfIUS+eN8Dt4aAABvAc/XTlbOv0Ti+OeK44T0Ollan
aTOZHwrvkNdn5DhgYdF055gL4O+kHaGsp+8HdaAHKXLA+hn8RZrQPT3/dIp5HrYV
6WZIB8aKCt/zG9ZiBO7TJz+0Ry6P6Ha8eFIDDoNbzYkTWjnVNVSfbsv3W3Yfm9Gq
heTbc3v+6HAtXrqx0Sv8WVMk7wV434mldNFa4p4dJh9LWfK+q3LcyzOlYsT/CxDx
p3XcmKdLSnKNCQ1HplCZB3Fs5WRcr83WGL8qpaXOpJiWFhm0RcnRxJXotiBNAgMB
AAGjgZcwgZQwDgYDVR0PAQH/BAQDAgWgMB0GA1UdJQQWMBQGCCsGAQUFBwMBBggr
BgEFBQcDAjAdBgNVHQ4EFgQU8sQiqrrsVdjr4M2iAXZlIs+I1FIwIwYDVR0RBBww
GoIYc2VjdWN0ZmQuaWljdC1oZWlnLXZkLmluMB8GA1UdIwQYMBaAFKnlEJE4eZ6V
mbLfiqD4cCmau9N0MA0GCSqGSIb3DQEBCwUAA4IBAQBKrdQV7mi7SbdwJ3kVGbPK
cKxOFE2CEkz/j4kp8EcsXUhYJI/0Ybvqgv7WlWMT/tNbZb7baM8peGuUpJeOk/Ao
2h6wi3HvOgaK5w4S+GJn5bSVBIu3j2Xjb+VFLTrMcTWII5PuApISdHPlHHKQNUca
5jqXgCIEhg/JnJmsKq9rB3g4QYuwTy1d7SSKsVOjjPFUCGs0AVP+G+6Ol22TcO2x
e1EC4hnBLCgq6zW9opdHME6xrqNDbIap6NzujpUJm4FwZ8LLAC3VU/HTIjSQhCX4
s6Tv+nkFhyNV8BbNX+Gekjlvjy+ji26XYdhow5IB5R2Lk61La+SHeM0+LwvVQ5q6
-----END CERTIFICATE-----
