Certificate:
    Data:
        Version: 3 (0x2)
        Serial Number:
            5e:3d:90:1b:60:49:eb:2d:d0:80:11:bb:1e:b8:80:92:ad:30:55:4f
        Signature Algorithm: sha256WithRSAEncryption
        Issuer: C=CH, O=HEIG-VD, CN=HEIG-VDRoot
        Validity
            Not Before: Jun 13 19:41:45 2025 GMT
            Not After : Jun 13 19:41:45 2035 GMT
        Subject: C=CH, O=HEIG-VD, CN=Fullemann-TLS
        Subject Public Key Info:
            Public Key Algorithm: rsaEncryption
                Public-Key: (2048 bit)
                Modulus:
                    00:b2:f7:3d:f7:7d:fa:7c:fc:8a:43:78:3c:51:d7:
                    5f:44:7e:5a:ad:b9:40:1c:99:b3:11:4f:b8:ab:15:
                    84:2d:ba:22:dd:14:3e:64:f9:66:19:67:5c:a7:a3:
                    16:6d:aa:41:9a:a4:7b:36:2d:f8:9f:21:f3:53:4c:
                    db:1b:21:e3:ae:8f:f1:4d:e4:84:5a:a5:3c:db:4d:
                    19:77:53:da:a2:22:36:40:60:75:b9:7f:f1:03:b8:
                    98:0c:e8:2e:34:98:4f:f9:3d:00:b4:80:3c:03:a5:
                    2f:2c:dc:46:47:f1:f8:71:15:13:1a:d8:9d:19:9f:
                    bd:48:70:80:89:7e:12:c4:fd:01:6c:13:22:bf:97:
                    fb:09:2a:a9:c4:39:59:64:21:85:b7:eb:de:4d:2f:
                    d6:7f:04:29:03:fd:a6:03:dd:97:63:57:e1:44:be:
                    a1:32:5e:bc:1b:b8:f8:ad:fd:4c:a8:28:2b:78:2b:
                    35:12:47:2e:9b:fc:36:b4:f6:99:37:70:da:70:28:
                    38:cb:ac:c9:94:89:1c:93:46:ce:8e:c3:1c:bb:bd:
                    1c:5a:2f:0f:c0:8e:15:17:b6:b6:c7:f2:a7:12:7f:
                    9f:59:24:14:7f:c7:bf:d8:d0:39:33:1e:80:f2:0f:
                    5f:76:18:b8:75:d3:6c:e4:c2:fc:e1:08:04:71:35:
                    9c:43
                Exponent: 65537 (0x10001)
        X509v3 extensions:
            X509v3 Key Usage: critical
                Certificate Sign, CRL Sign
            X509v3 Basic Constraints: critical
                CA:TRUE, pathlen:0
            X509v3 Subject Key Identifier: 
                C8:53:4A:A5:94:FC:3E:8C:C4:22:37:BB:78:9B:5D:98:9E:E7:E2:EE
            X509v3 Authority Key Identifier: 
                B0:0B:BF:2D:D3:44:1C:8B:B0:AD:85:52:A5:15:25:13:0D:B9:D6:70
    Signature Algorithm: sha256WithRSAEncryption
    Signature Value:
        40:bf:6a:78:cd:db:8f:39:1d:7d:ab:5a:6e:b6:d0:b0:9d:b9:
        ff:b0:50:77:ea:ef:64:0e:cd:a5:8e:03:46:a8:cf:a7:62:73:
        04:38:13:79:72:2e:78:04:b3:3f:83:30:aa:3e:e7:aa:56:3b:
        98:6f:9f:0e:50:ad:f1:48:96:c1:2e:26:74:1e:ac:50:59:19:
        d3:72:f2:38:e3:33:dd:bb:d5:44:dd:df:bd:2a:f8:16:72:65:
        86:42:21:a1:ee:61:01:63:4a:f5:82:07:d2:53:78:77:b6:6b:
        3a:ad:ed:1d:59:39:21:56:07:17:9b:f6:c4:9f:bc:76:54:79:
        65:36:f6:21:cd:c6:45:4d:cd:f3:5e:03:33:51:5c:4f:4c:aa:
        b5:c2:21:e9:a3:0d:a9:4b:b4:53:12:e1:29:11:f9:33:24:79:
        10:9e:29:12:fa:d5:cc:5c:c4:dd:04:8a:ad:6d:a6:9f:8d:91:
        84:c5:e4:1a:23:6e:dc:63:bb:04:ec:3f:a0:4c:8e:1a:38:61:
        a7:58:c5:1f:5c:a0:0a:5d:ed:b7:16:b5:05:5f:2c:d4:b8:31:
        b8:15:55:7e:e3:0c:9a:47:30:f4:ee:ce:12:2d:45:2b:8e:6b:
        a5:ad:6b:b2:d5:a8:88:ee:f3:0e:47:14:e3:ff:81:1d:00:87:
        a9:51:74:2b
-----BEGIN CERTIFICATE-----
MIIDYDCCAkigAwIBAgIUXj2QG2BJ6y3QgBG7HriAkq0wVU8wDQYJKoZIhvcNAQEL
BQAwNTELMAkGA1UEBhMCQ0gxEDAOBgNVBAoMB0hFSUctVkQxFDASBgNVBAMMC0hF
SUctVkRSb290MB4XDTI1MDYxMzE5NDE0NVoXDTM1MDYxMzE5NDE0NVowNzELMAkG
A1UEBhMCQ0gxEDAOBgNVBAoMB0hFSUctVkQxFjAUBgNVBAMMDUZ1bGxlbWFubi1U
TFMwggEiMA0GCSqGSIb3DQEBAQUAA4IBDwAwggEKAoIBAQCy9z33ffp8/IpDeDxR
119EflqtuUAcmbMRT7irFYQtuiLdFD5k+WYZZ1ynoxZtqkGapHs2LfifIfNTTNsb
IeOuj/FN5IRapTzbTRl3U9qiIjZAYHW5f/EDuJgM6C40mE/5PQC0gDwDpS8s3EZH
8fhxFRMa2J0Zn71IcICJfhLE/QFsEyK/l/sJKqnEOVlkIYW3695NL9Z/BCkD/aYD
3ZdjV+FEvqEyXrwbuPit/UyoKCt4KzUSRy6b/Da09pk3cNpwKDjLrMmUiRyTRs6O
wxy7vRxaLw/AjhUXtrbH8qcSf59ZJBR/x7/Y0DkzHoDyD192GLh102zkwvzhCARx
NZxDAgMBAAGjZjBkMA4GA1UdDwEB/wQEAwIBBjASBgNVHRMBAf8ECDAGAQH/AgEA
MB0GA1UdDgQWBBTIU0qllPw+jMQiN7t4m12Ynufi7jAfBgNVHSMEGDAWgBSwC78t
00Qci7CthVKlFSUTDbnWcDANBgkqhkiG9w0BAQsFAAOCAQEAQL9qeM3bjzkdfata
brbQsJ25/7BQd+rvZA7NpY4DRqjPp2JzBDgTeXIueASzP4Mwqj7nqlY7mG+fDlCt
8UiWwS4mdB6sUFkZ03LyOOMz3bvVRN3fvSr4FnJlhkIhoe5hAWNK9YIH0lN4d7Zr
Oq3tHVk5IVYHF5v2xJ+8dlR5ZTb2Ic3GRU3N814DM1FcT0yqtcIh6aMNqUu0UxLh
KRH5MyR5EJ4pEvrVzFzE3QSKrW2mn42RhMXkGiNu3GO7BOw/oEyOGjhhp1jFH1yg
Cl3ttxa1BV8s1LgxuBVVfuMMmkcw9O7OEi1FK45rpa1rstWoiO7zDkcU4/+BHQCH
qVF0Kw==
-----END CERTIFICATE-----
