Certificate:
    Data:
        Version: 3 (0x2)
        Serial Number:
            5e:3d:90:1b:60:49:eb:2d:d0:80:11:bb:1e:b8:80:92:ad:30:55:6b
        Signature Algorithm: sha256WithRSAEncryption
        Issuer: C=CH, O=HEIG-VD, CN=HEIG-VDRoot
        Validity
            Not Before: Jun 15 11:15:08 2025 GMT
            Not After : Jun 15 11:15:08 2035 GMT
        Subject: C=CH, O=HEIG-VD, CN=Fullemann-TLS
        Subject Public Key Info:
            Public Key Algorithm: rsaEncryption
                Public-Key: (2048 bit)
                Modulus:
                    00:c0:26:5e:2e:cd:60:ec:f3:bd:ef:dc:f0:82:a5:
                    46:07:70:0d:9d:33:6c:81:85:8c:97:05:c0:13:61:
                    7c:df:ae:a2:8c:d6:e4:c4:3b:52:c7:2f:c1:7f:3d:
                    90:56:de:63:29:fc:d9:5e:8a:d3:8f:8b:e7:49:af:
                    08:10:69:03:77:1c:9d:a4:a7:ea:8b:9d:d3:c8:e0:
                    ba:10:b2:e0:9c:24:29:aa:35:00:22:10:53:81:9a:
                    36:ee:d3:f7:0e:42:48:6b:9d:f7:77:31:00:1b:fb:
                    a1:94:d0:0b:39:b2:7c:f3:e3:64:1a:7c:0d:9a:6d:
                    41:4c:43:ed:31:d7:3b:ea:73:09:6c:66:9e:7a:28:
                    1d:6d:80:22:cb:cd:51:91:4e:37:d8:00:78:26:ef:
                    af:64:48:78:88:55:6c:de:cb:bb:54:9e:94:25:34:
                    02:6e:29:49:d7:9e:8f:b4:fe:da:c8:31:91:a9:0a:
                    fd:b3:56:d9:a3:ac:e1:63:bc:f1:79:7d:c6:70:ab:
                    0f:85:c7:2f:d9:fd:a0:ea:0b:bd:87:2d:52:53:99:
                    dd:ea:d7:43:a5:b8:d9:9e:ec:be:5a:ae:26:c5:6d:
                    fc:5a:9e:23:56:37:b0:37:a5:f9:13:5a:09:fd:72:
                    2e:76:45:02:6c:83:6d:57:06:8d:ef:a5:9e:c3:ef:
                    ac:01
                Exponent: 65537 (0x10001)
        X509v3 extensions:
            X509v3 Key Usage: critical
                Certificate Sign, CRL Sign
            X509v3 Basic Constraints: critical
                CA:TRUE, pathlen:0
            X509v3 Subject Key Identifier: 
                A9:E5:10:91:38:79:9E:95:99:B2:DF:8A:A0:F8:70:29:9A:BB:D3:74
            X509v3 Authority Key Identifier: 
                B0:0B:BF:2D:D3:44:1C:8B:B0:AD:85:52:A5:15:25:13:0D:B9:D6:70
    Signature Algorithm: sha256WithRSAEncryption
    Signature Value:
        6f:50:5e:3a:84:94:8c:c3:74:ee:16:eb:69:68:87:fb:b1:5d:
        cd:4b:34:5b:96:d4:00:ca:81:23:93:48:f5:b5:eb:b6:81:4b:
        3b:49:bd:cc:5a:da:77:63:4f:66:0f:a4:d1:40:99:26:f0:be:
        88:ff:bc:d0:bf:e2:a3:4c:b5:79:29:31:14:36:e5:a2:d9:ee:
        a5:01:ad:0e:8a:2e:0a:54:c5:dd:51:a5:6c:7c:80:b2:e6:de:
        39:69:8e:f7:a8:72:de:3d:27:08:10:57:d0:ba:45:a9:e8:ab:
        fb:66:3c:7a:04:f7:a2:25:52:d1:6c:f8:fa:91:1f:aa:42:ce:
        9a:4f:a8:79:9a:76:f7:0f:5d:8e:ea:2a:de:88:fa:b7:8e:45:
        9b:76:a1:05:b2:ef:38:8d:08:e6:9f:c0:62:80:81:96:f7:06:
        52:b7:36:20:8b:9c:1f:45:2a:09:61:b0:25:09:39:3e:93:f5:
        5d:7b:f6:f6:46:95:9b:fd:4a:7f:97:f4:e9:1c:68:90:3f:28:
        62:86:c4:2c:bd:8a:03:52:3f:36:5e:5f:d2:e2:25:55:db:04:
        35:61:3c:b0:cb:e9:0d:92:8b:c4:54:7a:54:69:9c:5a:67:10:
        a2:f1:f1:95:ab:0a:9e:70:3e:6a:21:3f:b2:69:37:d7:81:2b:
        63:08:06:6a
-----BEGIN CERTIFICATE-----
MIIDYDCCAkigAwIBAgIUXj2QG2BJ6y3QgBG7HriAkq0wVWswDQYJKoZIhvcNAQEL
BQAwNTELMAkGA1UEBhMCQ0gxEDAOBgNVBAoMB0hFSUctVkQxFDASBgNVBAMMC0hF
SUctVkRSb290MB4XDTI1MDYxNTExMTUwOFoXDTM1MDYxNTExMTUwOFowNzELMAkG
A1UEBhMCQ0gxEDAOBgNVBAoMB0hFSUctVkQxFjAUBgNVBAMMDUZ1bGxlbWFubi1U
TFMwggEiMA0GCSqGSIb3DQEBAQUAA4IBDwAwggEKAoIBAQDAJl4uzWDs873v3PCC
pUYHcA2dM2yBhYyXBcATYXzfrqKM1uTEO1LHL8F/PZBW3mMp/NleitOPi+dJrwgQ
aQN3HJ2kp+qLndPI4LoQsuCcJCmqNQAiEFOBmjbu0/cOQkhrnfd3MQAb+6GU0As5
snzz42QafA2abUFMQ+0x1zvqcwlsZp56KB1tgCLLzVGRTjfYAHgm769kSHiIVWze
y7tUnpQlNAJuKUnXno+0/trIMZGpCv2zVtmjrOFjvPF5fcZwqw+Fxy/Z/aDqC72H
LVJTmd3q10OluNme7L5aribFbfxaniNWN7A3pfkTWgn9ci52RQJsg21XBo3vpZ7D
76wBAgMBAAGjZjBkMA4GA1UdDwEB/wQEAwIBBjASBgNVHRMBAf8ECDAGAQH/AgEA
MB0GA1UdDgQWBBSp5RCROHmelZmy34qg+HApmrvTdDAfBgNVHSMEGDAWgBSwC78t
00Qci7CthVKlFSUTDbnWcDANBgkqhkiG9w0BAQsFAAOCAQEAb1BeOoSUjMN07hbr
aWiH+7FdzUs0W5bUAMqBI5NI9bXrtoFLO0m9zFrad2NPZg+k0UCZJvC+iP+80L/i
o0y1eSkxFDblotnupQGtDoouClTF3VGlbHyAsubeOWmO96hy3j0nCBBX0LpFqeir
+2Y8egT3oiVS0Wz4+pEfqkLOmk+oeZp29w9djuoq3oj6t45Fm3ahBbLvOI0I5p/A
YoCBlvcGUrc2IIucH0UqCWGwJQk5PpP1XXv29kaVm/1Kf5f06RxokD8oYobELL2K
A1I/Nl5f0uIlVdsENWE8sMvpDZKLxFR6VGmcWmcQovHxlasKnnA+aiE/smk314Er
YwgGag==
-----END CERTIFICATE-----
