Certificate:
    Data:
        Version: 3 (0x2)
        Serial Number: 3 (0x3)
        Signature Algorithm: sha256WithRSAEncryption
        Issuer: C=CH, O=HEIG-VD, CN=Fullemann-Email
        Validity
            Not Before: Jun 11 08:07:08 2025 GMT
            Not After : Jun 11 08:07:08 2027 GMT
        Subject: C=CH, O=HEIG-VD, CN=Fullemann-Email
        Subject Public Key Info:
            Public Key Algorithm: rsaEncryption
                Public-Key: (1024 bit)
                Modulus:
                    00:c2:a6:99:26:32:f0:0b:10:79:a3:f0:d4:19:ac:
                    4c:26:e0:62:77:d7:55:e5:93:13:8a:90:61:c0:9a:
                    ae:47:51:4a:d1:1c:86:11:10:53:d0:c0:91:7a:35:
                    72:6f:ba:4b:4a:45:eb:f2:cf:71:11:11:03:29:e1:
                    18:8f:88:4a:10:f4:51:05:ae:01:d5:2a:7d:b4:44:
                    28:20:e9:35:03:a4:13:f6:81:5a:6e:fd:73:13:5a:
                    64:80:73:f0:4f:1b:9f:3f:76:85:28:3c:eb:28:a4:
                    95:c5:73:f2:58:a7:85:74:de:81:a7:b6:a2:94:69:
                    b0:12:10:2c:96:66:96:a3:97
                Exponent: 65537 (0x10001)
        X509v3 extensions:
            X509v3 Key Usage: critical
                Digital Signature, Key Encipherment
            X509v3 Basic Constraints: 
                CA:FALSE
            X509v3 Extended Key Usage: 
                E-mail Protection, TLS Web Client Authentication, Any Extended Key Usage
            X509v3 Subject Key Identifier: 
                A8:2A:13:A7:D3:AB:2E:EF:6F:A2:FC:2A:65:BD:10:9F:20:B0:E6:91
            X509v3 Authority Key Identifier: 
                1D:5A:7B:B0:C7:69:1E:16:D5:12:ED:D9:56:52:4D:E1:C8:5A:2D:A9
    Signature Algorithm: sha256WithRSAEncryption
    Signature Value:
        17:2d:1d:ab:57:8c:0b:6c:25:75:b1:a5:8f:90:a5:c6:8f:ed:
        af:18:a9:6a:85:ee:da:63:82:15:fe:17:7f:1c:b1:2c:c3:a4:
        9a:17:68:9b:b2:b6:56:62:a5:b5:6f:a3:d4:4e:6b:ac:0b:8f:
        8a:16:71:5e:5d:fb:7c:70:37:dd:77:2f:93:3a:19:79:87:df:
        ba:10:ec:c6:2b:e9:28:2c:38:67:cc:3e:b3:c1:c8:3c:24:d7:
        0a:ce:49:92:af:2d:19:cb:c6:b1:24:53:66:c9:a3:16:fb:72:
        26:c2:26:58:f8:8c:4d:bf:7d:29:c0:12:0b:1a:63:59:3e:f8:
        e5:92
-----BEGIN CERTIFICATE-----
MIICbDCCAdWgAwIBAgIBAzANBgkqhkiG9w0BAQsFADA5MQswCQYDVQQGEwJDSDEQ
MA4GA1UECgwHSEVJRy1WRDEYMBYGA1UEAwwPRnVsbGVtYW5uLUVtYWlsMB4XDTI1
MDYxMTA4MDcwOFoXDTI3MDYxMTA4MDcwOFowOTELMAkGA1UEBhMCQ0gxEDAOBgNV
BAoMB0hFSUctVkQxGDAWBgNVBAMMD0Z1bGxlbWFubi1FbWFpbDCBnzANBgkqhkiG
9w0BAQEFAAOBjQAwgYkCgYEAwqaZJjLwCxB5o/DUGaxMJuBid9dV5ZMTipBhwJqu
R1FK0RyGERBT0MCRejVyb7pLSkXr8s9xEREDKeEYj4hKEPRRBa4B1Sp9tEQoIOk1
A6QT9oFabv1zE1pkgHPwTxufP3aFKDzrKKSVxXPyWKeFdN6Bp7ailGmwEhAslmaW
o5cCAwEAAaOBgzCBgDAOBgNVHQ8BAf8EBAMCBaAwCQYDVR0TBAIwADAjBgNVHSUE
HDAaBggrBgEFBQcDBAYIKwYBBQUHAwIGBFUdJQAwHQYDVR0OBBYEFKgqE6fTqy7v
b6L8KmW9EJ8gsOaRMB8GA1UdIwQYMBaAFB1ae7DHaR4W1RLt2VZSTeHIWi2pMA0G
CSqGSIb3DQEBCwUAA4GBABctHatXjAtsJXWxpY+QpcaP7a8YqWqF7tpjghX+F38c
sSzDpJoXaJuytlZipbVvo9ROa6wLj4oWcV5d+3xwN913L5M6GXmH37oQ7MYr6Sgs
OGfMPrPByDwk1wrOSZKvLRnLxrEkU2bJoxb7cibCJlj4jE2/fSnAEgsaY1k++OWS
-----END CERTIFICATE-----
