Certificate:
    Data:
        Version: 3 (0x2)
        Serial Number: 4 (0x4)
        Signature Algorithm: sha256WithRSAEncryption
        Issuer: C=CH, O=HEIG-VD, CN=Fullemann-Email
        Validity
            Not Before: Jun 13 09:11:46 2025 GMT
            Not After : Jun 13 09:11:46 2027 GMT
        Subject: C=CH, O=HEIG-VD, CN=Fullemann-Email
        Subject Public Key Info:
            Public Key Algorithm: rsaEncryption
                Public-Key: (1024 bit)
                Modulus:
                    00:c4:50:2e:b9:72:48:51:7a:9c:b2:aa:bc:c8:2f:
                    5c:44:ec:bc:63:34:15:19:19:75:65:22:e0:f2:6f:
                    c8:ac:56:37:7e:bb:ab:f9:46:aa:4c:0b:f3:d5:5e:
                    b0:84:23:16:3b:44:6c:6c:08:65:82:c5:3a:29:77:
                    8b:4c:27:5a:5b:b6:2b:74:d5:f0:94:9c:ea:c4:b1:
                    6f:fb:9c:08:39:cb:7d:6b:a0:c5:de:14:6f:a1:ae:
                    f1:0b:ef:3b:76:d9:d4:96:50:14:37:17:6e:f7:35:
                    21:47:ca:62:b1:35:29:38:22:7f:d0:eb:ce:42:01:
                    be:2d:98:fb:d3:4d:45:0e:ab
                Exponent: 65537 (0x10001)
        X509v3 extensions:
            X509v3 Key Usage: critical
                Digital Signature, Key Encipherment
            X509v3 Basic Constraints: 
                CA:FALSE
            X509v3 Extended Key Usage: 
                E-mail Protection, TLS Web Client Authentication, Any Extended Key Usage
            X509v3 Subject Key Identifier: 
                34:8F:F9:63:39:7B:86:7F:81:7B:08:7E:DF:B0:C5:6B:D5:CE:22:70
            X509v3 Authority Key Identifier: 
                BB:25:3F:90:FB:8C:FD:77:A1:6F:BA:75:5D:F9:10:6F:A9:A4:EF:1D
    Signature Algorithm: sha256WithRSAEncryption
    Signature Value:
        cc:2e:42:e0:6e:fc:51:30:1e:75:de:8b:84:3b:4f:4d:28:ab:
        c9:9a:08:0e:a1:5d:92:88:1d:de:4d:26:1a:3a:2f:2d:f1:46:
        9e:a3:01:36:31:d2:1a:71:4d:1a:1c:e1:40:ea:2b:6f:c9:f3:
        26:8b:00:f2:f7:be:61:90:1e:92:55:d7:1c:0a:42:ce:13:f9:
        e2:8d:68:3d:7d:43:c9:88:58:a7:04:2c:9e:67:33:b8:a4:b8:
        7a:6e:a5:c2:e1:98:54:52:fa:21:fb:71:8b:94:1e:94:dc:61:
        36:80:96:01:f8:87:18:db:eb:b3:60:72:c4:32:db:f9:9c:8c:
        94:6d
-----BEGIN CERTIFICATE-----
MIICbDCCAdWgAwIBAgIBBDANBgkqhkiG9w0BAQsFADA5MQswCQYDVQQGEwJDSDEQ
MA4GA1UECgwHSEVJRy1WRDEYMBYGA1UEAwwPRnVsbGVtYW5uLUVtYWlsMB4XDTI1
MDYxMzA5MTE0NloXDTI3MDYxMzA5MTE0NlowOTELMAkGA1UEBhMCQ0gxEDAOBgNV
BAoMB0hFSUctVkQxGDAWBgNVBAMMD0Z1bGxlbWFubi1FbWFpbDCBnzANBgkqhkiG
9w0BAQEFAAOBjQAwgYkCgYEAxFAuuXJIUXqcsqq8yC9cROy8YzQVGRl1ZSLg8m/I
rFY3frur+UaqTAvz1V6whCMWO0RsbAhlgsU6KXeLTCdaW7YrdNXwlJzqxLFv+5wI
Oct9a6DF3hRvoa7xC+87dtnUllAUNxdu9zUhR8pisTUpOCJ/0OvOQgG+LZj7001F
DqsCAwEAAaOBgzCBgDAOBgNVHQ8BAf8EBAMCBaAwCQYDVR0TBAIwADAjBgNVHSUE
HDAaBggrBgEFBQcDBAYIKwYBBQUHAwIGBFUdJQAwHQYDVR0OBBYEFDSP+WM5e4Z/
gXsIft+wxWvVziJwMB8GA1UdIwQYMBaAFLslP5D7jP13oW+6dV35EG+ppO8dMA0G
CSqGSIb3DQEBCwUAA4GBAMwuQuBu/FEwHnXei4Q7T00oq8maCA6hXZKIHd5NJho6
Ly3xRp6jATYx0hpxTRoc4UDqK2/J8yaLAPL3vmGQHpJV1xwKQs4T+eKNaD19Q8mI
WKcELJ5nM7ikuHpupcLhmFRS+iH7cYuUHpTcYTaAlgH4hxjb67NgcsQy2/mcjJRt
-----END CERTIFICATE-----
