Certificate:
    Data:
        Version: 3 (0x2)
        Serial Number: 5 (0x5)
        Signature Algorithm: sha256WithRSAEncryption
        Issuer: C=CH, O=HEIG-VD, CN=Fullemann-Email
        Validity
            Not Before: Jun 13 09:34:53 2025 GMT
            Not After : Jun 13 09:34:53 2027 GMT
        Subject: C=CH, O=HEIG-VD, CN=Fullemann-Email
        Subject Public Key Info:
            Public Key Algorithm: rsaEncryption
                Public-Key: (1024 bit)
                Modulus:
                    00:c4:50:2e:b9:72:48:51:7a:9c:b2:aa:bc:c8:2f:
                    5c:44:ec:bc:63:34:15:19:19:75:65:22:e0:f2:6f:
                    c8:ac:56:37:7e:bb:ab:f9:46:aa:4c:0b:f3:d5:5e:
                    b0:84:23:16:3b:44:6c:6c:08:65:82:c5:3a:29:77:
                    8b:4c:27:5a:5b:b6:2b:74:d5:f0:94:9c:ea:c4:b1:
                    6f:fb:9c:08:39:cb:7d:6b:a0:c5:de:14:6f:a1:ae:
                    f1:0b:ef:3b:76:d9:d4:96:50:14:37:17:6e:f7:35:
                    21:47:ca:62:b1:35:29:38:22:7f:d0:eb:ce:42:01:
                    be:2d:98:fb:d3:4d:45:0e:ab
                Exponent: 65537 (0x10001)
        X509v3 extensions:
            X509v3 Key Usage: critical
                Digital Signature, Key Encipherment
            X509v3 Basic Constraints: 
                CA:FALSE
            X509v3 Extended Key Usage: 
                E-mail Protection, TLS Web Client Authentication, Any Extended Key Usage
            X509v3 Subject Key Identifier: 
                34:8F:F9:63:39:7B:86:7F:81:7B:08:7E:DF:B0:C5:6B:D5:CE:22:70
            X509v3 Authority Key Identifier: 
                BB:25:3F:90:FB:8C:FD:77:A1:6F:BA:75:5D:F9:10:6F:A9:A4:EF:1D
    Signature Algorithm: sha256WithRSAEncryption
    Signature Value:
        34:3c:3b:06:6d:c7:cb:57:02:6f:4f:db:d0:7f:d5:e3:ad:fd:
        bf:16:fa:60:28:f7:8e:5c:aa:3d:9b:0c:cc:15:6f:2d:b3:47:
        08:b4:57:0a:99:89:f4:3d:54:14:a7:bb:c5:69:f5:7f:f0:6e:
        91:87:dd:5a:53:1e:ac:f6:8b:c5:9b:b3:f9:4d:a3:24:3d:04:
        8b:5f:d1:fd:05:ed:06:cb:55:80:36:33:48:b4:84:96:8c:d2:
        75:1e:3c:a2:c6:28:02:b6:f6:f7:d9:61:75:90:f9:8a:54:6a:
        7c:9f:b1:fb:49:67:9b:97:5d:23:2f:4f:6a:6e:53:81:10:4d:
        50:2f
-----BEGIN CERTIFICATE-----
MIICbDCCAdWgAwIBAgIBBTANBgkqhkiG9w0BAQsFADA5MQswCQYDVQQGEwJDSDEQ
MA4GA1UECgwHSEVJRy1WRDEYMBYGA1UEAwwPRnVsbGVtYW5uLUVtYWlsMB4XDTI1
MDYxMzA5MzQ1M1oXDTI3MDYxMzA5MzQ1M1owOTELMAkGA1UEBhMCQ0gxEDAOBgNV
BAoMB0hFSUctVkQxGDAWBgNVBAMMD0Z1bGxlbWFubi1FbWFpbDCBnzANBgkqhkiG
9w0BAQEFAAOBjQAwgYkCgYEAxFAuuXJIUXqcsqq8yC9cROy8YzQVGRl1ZSLg8m/I
rFY3frur+UaqTAvz1V6whCMWO0RsbAhlgsU6KXeLTCdaW7YrdNXwlJzqxLFv+5wI
Oct9a6DF3hRvoa7xC+87dtnUllAUNxdu9zUhR8pisTUpOCJ/0OvOQgG+LZj7001F
DqsCAwEAAaOBgzCBgDAOBgNVHQ8BAf8EBAMCBaAwCQYDVR0TBAIwADAjBgNVHSUE
HDAaBggrBgEFBQcDBAYIKwYBBQUHAwIGBFUdJQAwHQYDVR0OBBYEFDSP+WM5e4Z/
gXsIft+wxWvVziJwMB8GA1UdIwQYMBaAFLslP5D7jP13oW+6dV35EG+ppO8dMA0G
CSqGSIb3DQEBCwUAA4GBADQ8OwZtx8tXAm9P29B/1eOt/b8W+mAo945cqj2bDMwV
by2zRwi0VwqZifQ9VBSnu8Vp9X/wbpGH3VpTHqz2i8Wbs/lNoyQ9BItf0f0F7QbL
VYA2M0i0hJaM0nUePKLGKAK29vfZYXWQ+YpUanyfsftJZ5uXXSMvT2puU4EQTVAv
-----END CERTIFICATE-----
