Certificate:
    Data:
        Version: 3 (0x2)
        Serial Number: 6 (0x6)
        Signature Algorithm: sha256WithRSAEncryption
        Issuer: C=CH, O=HEIG-VD, CN=Fullemann-Email
        Validity
            Not Before: Jun 13 09:45:36 2025 GMT
            Not After : Jun 13 09:45:36 2027 GMT
        Subject: C=CH, O=HEIG-VD, CN=Fullemann-Email
        Subject Public Key Info:
            Public Key Algorithm: rsaEncryption
                Public-Key: (1024 bit)
                Modulus:
                    00:c4:50:2e:b9:72:48:51:7a:9c:b2:aa:bc:c8:2f:
                    5c:44:ec:bc:63:34:15:19:19:75:65:22:e0:f2:6f:
                    c8:ac:56:37:7e:bb:ab:f9:46:aa:4c:0b:f3:d5:5e:
                    b0:84:23:16:3b:44:6c:6c:08:65:82:c5:3a:29:77:
                    8b:4c:27:5a:5b:b6:2b:74:d5:f0:94:9c:ea:c4:b1:
                    6f:fb:9c:08:39:cb:7d:6b:a0:c5:de:14:6f:a1:ae:
                    f1:0b:ef:3b:76:d9:d4:96:50:14:37:17:6e:f7:35:
                    21:47:ca:62:b1:35:29:38:22:7f:d0:eb:ce:42:01:
                    be:2d:98:fb:d3:4d:45:0e:ab
                Exponent: 65537 (0x10001)
        X509v3 extensions:
            X509v3 Key Usage: critical
                Digital Signature, Key Encipherment
            X509v3 Basic Constraints: 
                CA:FALSE
            X509v3 Extended Key Usage: 
                E-mail Protection, TLS Web Client Authentication, Any Extended Key Usage
            X509v3 Subject Key Identifier: 
                34:8F:F9:63:39:7B:86:7F:81:7B:08:7E:DF:B0:C5:6B:D5:CE:22:70
            X509v3 Authority Key Identifier: 
                BB:25:3F:90:FB:8C:FD:77:A1:6F:BA:75:5D:F9:10:6F:A9:A4:EF:1D
    Signature Algorithm: sha256WithRSAEncryption
    Signature Value:
        d5:48:dd:7b:61:d3:fa:8e:b0:1d:ed:e9:1d:d1:e3:c2:73:9a:
        48:56:15:e6:bd:e5:04:de:29:f9:87:7d:14:9a:b6:f1:c2:75:
        f0:cc:3b:90:c6:97:a5:6c:58:ab:cb:f6:05:27:11:ee:00:20:
        40:6f:1d:3e:b2:4b:cf:9f:40:8b:03:34:b9:04:18:4c:79:68:
        94:f0:c6:18:a7:b1:f8:a7:c4:97:9c:c8:a0:c9:47:b7:92:0c:
        aa:13:e7:fc:e0:7c:fa:f8:c9:3d:8b:16:90:71:a4:32:cb:96:
        54:70:d9:0c:7a:c6:b5:94:91:9e:12:94:58:ef:0f:70:dc:bc:
        a8:91
-----BEGIN CERTIFICATE-----
MIICbDCCAdWgAwIBAgIBBjANBgkqhkiG9w0BAQsFADA5MQswCQYDVQQGEwJDSDEQ
MA4GA1UECgwHSEVJRy1WRDEYMBYGA1UEAwwPRnVsbGVtYW5uLUVtYWlsMB4XDTI1
MDYxMzA5NDUzNloXDTI3MDYxMzA5NDUzNlowOTELMAkGA1UEBhMCQ0gxEDAOBgNV
BAoMB0hFSUctVkQxGDAWBgNVBAMMD0Z1bGxlbWFubi1FbWFpbDCBnzANBgkqhkiG
9w0BAQEFAAOBjQAwgYkCgYEAxFAuuXJIUXqcsqq8yC9cROy8YzQVGRl1ZSLg8m/I
rFY3frur+UaqTAvz1V6whCMWO0RsbAhlgsU6KXeLTCdaW7YrdNXwlJzqxLFv+5wI
Oct9a6DF3hRvoa7xC+87dtnUllAUNxdu9zUhR8pisTUpOCJ/0OvOQgG+LZj7001F
DqsCAwEAAaOBgzCBgDAOBgNVHQ8BAf8EBAMCBaAwCQYDVR0TBAIwADAjBgNVHSUE
HDAaBggrBgEFBQcDBAYIKwYBBQUHAwIGBFUdJQAwHQYDVR0OBBYEFDSP+WM5e4Z/
gXsIft+wxWvVziJwMB8GA1UdIwQYMBaAFLslP5D7jP13oW+6dV35EG+ppO8dMA0G
CSqGSIb3DQEBCwUAA4GBANVI3Xth0/qOsB3t6R3R48JzmkhWFea95QTeKfmHfRSa
tvHCdfDMO5DGl6VsWKvL9gUnEe4AIEBvHT6yS8+fQIsDNLkEGEx5aJTwxhinsfin
xJecyKDJR7eSDKoT5/zgfPr4yT2LFpBxpDLLllRw2Qx6xrWUkZ4SlFjvD3DcvKiR
-----END CERTIFICATE-----
