Certificate:
    Data:
        Version: 3 (0x2)
        Serial Number: 7 (0x7)
        Signature Algorithm: sha256WithRSAEncryption
        Issuer: C=CH, O=HEIG-VD, CN=Fullemann-Email
        Validity
            Not Before: Jun 13 09:51:25 2025 GMT
            Not After : Jun 13 09:51:25 2027 GMT
        Subject: C=CH, O=HEIG-VD, CN=nathan.fullemann@heig-vd.ch
        Subject Public Key Info:
            Public Key Algorithm: rsaEncryption
                Public-Key: (1024 bit)
                Modulus:
                    00:cb:c5:2a:37:b9:1a:99:a4:5f:fb:8e:f5:2a:39:
                    07:bf:55:30:e3:ee:2d:6e:5d:bb:08:2a:96:e5:03:
                    ac:7a:7d:83:1a:6e:a8:6b:bb:c5:4e:8c:27:6a:d1:
                    36:4b:86:a5:17:2d:87:9c:08:ac:19:3f:05:44:ee:
                    16:c0:e3:76:31:22:1b:d2:49:4f:5f:03:fc:cf:0a:
                    93:7e:f5:14:93:f4:f4:b6:8f:2c:04:f5:54:db:c4:
                    5b:80:57:30:69:8e:5d:9e:ca:10:05:b2:50:3b:c8:
                    a3:68:b3:d0:d3:b0:f7:83:bd:d0:1d:db:a8:6e:29:
                    d8:76:e4:5d:ba:91:42:1d:4d
                Exponent: 65537 (0x10001)
        X509v3 extensions:
            X509v3 Key Usage: critical
                Digital Signature, Key Encipherment
            X509v3 Basic Constraints: 
                CA:FALSE
            X509v3 Extended Key Usage: 
                E-mail Protection, TLS Web Client Authentication, Any Extended Key Usage
            X509v3 Subject Key Identifier: 
                03:58:0C:27:17:7D:51:05:2B:AF:10:A2:DF:46:0B:A9:35:1B:86:39
            X509v3 Authority Key Identifier: 
                BB:25:3F:90:FB:8C:FD:77:A1:6F:BA:75:5D:F9:10:6F:A9:A4:EF:1D
            X509v3 Subject Alternative Name: 
                email:nathan.fullemann@heig-vd.ch
    Signature Algorithm: sha256WithRSAEncryption
    Signature Value:
        1b:d6:5c:ad:ff:60:e4:cf:61:f3:6d:9c:3b:24:97:94:c9:42:
        01:8e:26:c3:10:b2:f3:02:70:8b:52:ea:c7:80:f3:9a:bd:08:
        e3:3d:25:00:92:26:86:d1:a0:91:94:29:40:c3:a9:3d:ed:ed:
        63:ac:23:9a:db:53:33:24:b5:6a:31:10:10:57:aa:42:d4:8c:
        f7:21:6e:02:14:2f:ec:f9:03:8f:05:e9:a0:ab:52:9d:2f:9e:
        28:05:69:8a:b9:a5:8e:84:05:86:4d:50:d9:4f:75:85:c2:37:
        ba:fe:b3:5c:fd:d6:46:12:12:f1:d6:a9:1c:9f:8b:6a:05:32:
        ff:87
-----BEGIN CERTIFICATE-----
MIICoDCCAgmgAwIBAgIBBzANBgkqhkiG9w0BAQsFADA5MQswCQYDVQQGEwJDSDEQ
MA4GA1UECgwHSEVJRy1WRDEYMBYGA1UEAwwPRnVsbGVtYW5uLUVtYWlsMB4XDTI1
MDYxMzA5NTEyNVoXDTI3MDYxMzA5NTEyNVowRTELMAkGA1UEBhMCQ0gxEDAOBgNV
BAoMB0hFSUctVkQxJDAiBgNVBAMMG25hdGhhbi5mdWxsZW1hbm5AaGVpZy12ZC5j
aDCBnzANBgkqhkiG9w0BAQEFAAOBjQAwgYkCgYEAy8UqN7kamaRf+471KjkHv1Uw
4+4tbl27CCqW5QOsen2DGm6oa7vFTownatE2S4alFy2HnAisGT8FRO4WwON2MSIb
0klPXwP8zwqTfvUUk/T0to8sBPVU28RbgFcwaY5dnsoQBbJQO8ijaLPQ07D3g73Q
HduobinYduRdupFCHU0CAwEAAaOBqzCBqDAOBgNVHQ8BAf8EBAMCBaAwCQYDVR0T
BAIwADAjBgNVHSUEHDAaBggrBgEFBQcDBAYIKwYBBQUHAwIGBFUdJQAwHQYDVR0O
BBYEFANYDCcXfVEFK68Qot9GC6k1G4Y5MB8GA1UdIwQYMBaAFLslP5D7jP13oW+6
dV35EG+ppO8dMCYGA1UdEQQfMB2BG25hdGhhbi5mdWxsZW1hbm5AaGVpZy12ZC5j
aDANBgkqhkiG9w0BAQsFAAOBgQAb1lyt/2Dkz2HzbZw7JJeUyUIBjibDELLzAnCL
UurHgPOavQjjPSUAkiaG0aCRlClAw6k97e1jrCOa21MzJLVqMRAQV6pC1Iz3IW4C
FC/s+QOPBemgq1KdL54oBWmKuaWOhAWGTVDZT3WFwje6/rNc/dZGEhLx1qkcn4tq
BTL/hw==
-----END CERTIFICATE-----
