Certificate:
    Data:
        Version: 3 (0x2)
        Serial Number: 8 (0x8)
        Signature Algorithm: sha256WithRSAEncryption
        Issuer: C=CH, O=HEIG-VD, CN=Fullemann-Email
        Validity
            Not Before: Jun 13 10:29:30 2025 GMT
            Not After : Jun 13 10:29:30 2027 GMT
        Subject: C=CH, O=HEIG-VD, CN=nathan.fulleman@hes-so.ch
        Subject Public Key Info:
            Public Key Algorithm: rsaEncryption
                Public-Key: (1024 bit)
                Modulus:
                    00:e9:d5:1a:ef:20:8c:fa:a8:1b:06:bf:c6:ff:8f:
                    ad:ce:a8:6c:42:ae:8b:dc:02:4a:05:40:49:20:c8:
                    e3:a4:ef:5e:40:88:f1:43:29:05:7c:06:ac:b5:2c:
                    df:c6:79:f6:6b:e2:8b:72:00:ed:81:b6:a1:51:bc:
                    2a:e6:06:ba:82:90:d2:e8:b6:44:0b:ff:4d:25:42:
                    f9:34:f2:85:17:0e:fd:b6:33:64:8d:e9:c4:51:0d:
                    77:88:77:51:97:79:8e:c2:44:0f:e0:0b:5e:5c:cc:
                    9c:89:fb:1c:a5:89:27:2e:45:18:37:23:ed:05:5e:
                    86:55:02:16:9e:3f:67:65:67
                Exponent: 65537 (0x10001)
        X509v3 extensions:
            X509v3 Key Usage: critical
                Digital Signature, Key Encipherment
            X509v3 Basic Constraints: 
                CA:FALSE
            X509v3 Extended Key Usage: 
                E-mail Protection, TLS Web Client Authentication, Any Extended Key Usage
            X509v3 Subject Key Identifier: 
                6A:27:C7:07:D5:B6:BD:DE:07:C4:9F:4D:41:49:FB:93:08:18:15:E8
            X509v3 Authority Key Identifier: 
                BB:25:3F:90:FB:8C:FD:77:A1:6F:BA:75:5D:F9:10:6F:A9:A4:EF:1D
            X509v3 Subject Alternative Name: 
                email:nathan.fulleman@hes-so.ch
    Signature Algorithm: sha256WithRSAEncryption
    Signature Value:
        21:b1:67:71:c3:8b:85:b4:fd:8e:56:bb:80:fb:46:c0:31:e7:
        f7:3f:c5:6c:53:16:0d:be:38:60:59:eb:e5:4c:ab:d3:5d:1e:
        37:4a:93:83:eb:65:3e:eb:d8:45:d6:69:12:fa:fb:d9:c6:3d:
        56:ae:37:74:ac:8a:8c:e4:ab:9f:5b:0c:8a:1d:9e:ae:02:3e:
        5d:9c:01:72:b5:da:8b:e3:19:ed:7d:f7:96:b8:aa:47:8c:34:
        5a:29:94:15:05:57:90:68:cc:4d:18:73:16:23:99:e3:b2:69:
        e4:6a:7b:38:01:88:4c:25:1a:fd:d3:c3:6f:ad:bb:6e:34:27:
        7e:f1
-----BEGIN CERTIFICATE-----
MIICnDCCAgWgAwIBAgIBCDANBgkqhkiG9w0BAQsFADA5MQswCQYDVQQGEwJDSDEQ
MA4GA1UECgwHSEVJRy1WRDEYMBYGA1UEAwwPRnVsbGVtYW5uLUVtYWlsMB4XDTI1
MDYxMzEwMjkzMFoXDTI3MDYxMzEwMjkzMFowQzELMAkGA1UEBhMCQ0gxEDAOBgNV
BAoMB0hFSUctVkQxIjAgBgNVBAMMGW5hdGhhbi5mdWxsZW1hbkBoZXMtc28uY2gw
gZ8wDQYJKoZIhvcNAQEBBQADgY0AMIGJAoGBAOnVGu8gjPqoGwa/xv+Prc6obEKu
i9wCSgVASSDI46TvXkCI8UMpBXwGrLUs38Z59mvii3IA7YG2oVG8KuYGuoKQ0ui2
RAv/TSVC+TTyhRcO/bYzZI3pxFENd4h3UZd5jsJED+ALXlzMnIn7HKWJJy5FGDcj
7QVehlUCFp4/Z2VnAgMBAAGjgakwgaYwDgYDVR0PAQH/BAQDAgWgMAkGA1UdEwQC
MAAwIwYDVR0lBBwwGgYIKwYBBQUHAwQGCCsGAQUFBwMCBgRVHSUAMB0GA1UdDgQW
BBRqJ8cH1ba93gfEn01BSfuTCBgV6DAfBgNVHSMEGDAWgBS7JT+Q+4z9d6FvunVd
+RBvqaTvHTAkBgNVHREEHTAbgRluYXRoYW4uZnVsbGVtYW5AaGVzLXNvLmNoMA0G
CSqGSIb3DQEBCwUAA4GBACGxZ3HDi4W0/Y5Wu4D7RsAx5/c/xWxTFg2+OGBZ6+VM
q9NdHjdKk4PrZT7r2EXWaRL6+9nGPVauN3Ssiozkq59bDIodnq4CPl2cAXK12ovj
Ge1995a4qkeMNFoplBUFV5BozE0YcxYjmeOyaeRqezgBiEwlGv3Tw2+tu240J37x
-----END CERTIFICATE-----
