Certificate:
    Data:
        Version: 3 (0x2)
        Serial Number: 9 (0x9)
        Signature Algorithm: sha256WithRSAEncryption
        Issuer: C=CH, O=HEIG-VD, CN=Fullemann-Email
        Validity
            Not Before: Jun 13 11:09:59 2025 GMT
            Not After : Jun 13 11:09:59 2027 GMT
        Subject: C=CH, O=HEIG-VD, CN=Fullemann-Email
        Subject Public Key Info:
            Public Key Algorithm: rsaEncryption
                Public-Key: (1024 bit)
                Modulus:
                    00:cf:87:2a:f3:49:cd:d4:6d:b0:f5:7c:35:c7:12:
                    a0:40:db:60:6e:c0:ad:79:e8:81:79:87:9c:a3:14:
                    59:67:a0:2f:ff:db:df:84:d8:6f:6d:23:08:e8:a8:
                    a2:ad:b5:54:27:7e:40:69:ed:c0:10:d1:21:f9:b0:
                    64:1e:fe:3b:a3:fc:67:18:05:dc:02:08:86:61:14:
                    13:58:f5:df:60:18:16:d5:18:3e:6e:e3:ef:6d:bf:
                    f1:f6:8e:0f:32:ea:2e:ab:21:72:44:a5:ab:4d:e9:
                    a2:75:22:7d:d6:3b:95:6d:51:72:69:15:6b:50:8f:
                    2e:7d:a3:35:f9:b0:b3:c5:9f
                Exponent: 65537 (0x10001)
        X509v3 extensions:
            X509v3 Key Usage: critical
                Digital Signature, Key Encipherment
            X509v3 Basic Constraints: 
                CA:FALSE
            X509v3 Extended Key Usage: 
                E-mail Protection, TLS Web Client Authentication, Any Extended Key Usage
            X509v3 Subject Key Identifier: 
                3C:FA:14:36:B4:3A:2D:9F:98:98:16:38:3B:64:09:2F:B6:D8:37:B9
            X509v3 Authority Key Identifier: 
                04:1D:3B:2A:4E:79:73:CE:C4:2C:B9:44:5B:CE:6D:F1:EE:BD:9B:8E
            X509v3 Subject Alternative Name: 
                email:nathan.fulleman@hes-so.ch
    Signature Algorithm: sha256WithRSAEncryption
    Signature Value:
        bb:d2:67:93:ca:d6:3b:4a:aa:ed:af:08:b2:8a:63:7c:dd:50:
        6f:82:75:53:3b:8b:60:5c:4f:09:de:78:a2:02:74:03:de:18:
        37:d1:b9:52:7f:45:6d:dc:c1:c1:b8:0c:cb:f5:42:17:69:94:
        92:fe:db:d5:a9:5d:8b:21:43:13:6a:97:68:a2:52:fc:29:27:
        16:0e:8a:ba:51:cf:24:e5:61:ee:cf:63:c7:dc:15:c4:d3:05:
        10:17:21:03:ba:bb:9c:4d:73:85:ec:31:fc:9e:b6:52:77:fb:
        c3:43:78:ae:47:9b:37:dd:03:e2:85:3d:36:d7:d7:3c:61:7b:
        c7:33
-----BEGIN CERTIFICATE-----
MIICkjCCAfugAwIBAgIBCTANBgkqhkiG9w0BAQsFADA5MQswCQYDVQQGEwJDSDEQ
MA4GA1UECgwHSEVJRy1WRDEYMBYGA1UEAwwPRnVsbGVtYW5uLUVtYWlsMB4XDTI1
MDYxMzExMDk1OVoXDTI3MDYxMzExMDk1OVowOTELMAkGA1UEBhMCQ0gxEDAOBgNV
BAoMB0hFSUctVkQxGDAWBgNVBAMMD0Z1bGxlbWFubi1FbWFpbDCBnzANBgkqhkiG
9w0BAQEFAAOBjQAwgYkCgYEAz4cq80nN1G2w9Xw1xxKgQNtgbsCteeiBeYecoxRZ
Z6Av/9vfhNhvbSMI6KiirbVUJ35Aae3AENEh+bBkHv47o/xnGAXcAgiGYRQTWPXf
YBgW1Rg+buPvbb/x9o4PMuouqyFyRKWrTemidSJ91juVbVFyaRVrUI8ufaM1+bCz
xZ8CAwEAAaOBqTCBpjAOBgNVHQ8BAf8EBAMCBaAwCQYDVR0TBAIwADAjBgNVHSUE
HDAaBggrBgEFBQcDBAYIKwYBBQUHAwIGBFUdJQAwHQYDVR0OBBYEFDz6FDa0Oi2f
mJgWODtkCS+22De5MB8GA1UdIwQYMBaAFAQdOypOeXPOxCy5RFvObfHuvZuOMCQG
A1UdEQQdMBuBGW5hdGhhbi5mdWxsZW1hbkBoZXMtc28uY2gwDQYJKoZIhvcNAQEL
BQADgYEAu9Jnk8rWO0qq7a8IsopjfN1Qb4J1UzuLYFxPCd54ogJ0A94YN9G5Un9F
bdzBwbgMy/VCF2mUkv7b1aldiyFDE2qXaKJS/CknFg6KulHPJOVh7s9jx9wVxNMF
EBchA7q7nE1zhewx/J62Unf7w0N4rkebN90D4oU9NtfXPGF7xzM=
-----END CERTIFICATE-----
