Certificate:
    Data:
        Version: 3 (0x2)
        Serial Number: 10 (0xa)
        Signature Algorithm: sha256WithRSAEncryption
        Issuer: C=CH, O=HEIG-VD, CN=Fullemann-Email
        Validity
            Not Before: Jun 13 11:10:39 2025 GMT
            Not After : Jun 13 11:10:39 2027 GMT
        Subject: C=CH, O=HEIG-VD, CN=Fullemann-Email
        Subject Public Key Info:
            Public Key Algorithm: rsaEncryption
                Public-Key: (1024 bit)
                Modulus:
                    00:cf:87:2a:f3:49:cd:d4:6d:b0:f5:7c:35:c7:12:
                    a0:40:db:60:6e:c0:ad:79:e8:81:79:87:9c:a3:14:
                    59:67:a0:2f:ff:db:df:84:d8:6f:6d:23:08:e8:a8:
                    a2:ad:b5:54:27:7e:40:69:ed:c0:10:d1:21:f9:b0:
                    64:1e:fe:3b:a3:fc:67:18:05:dc:02:08:86:61:14:
                    13:58:f5:df:60:18:16:d5:18:3e:6e:e3:ef:6d:bf:
                    f1:f6:8e:0f:32:ea:2e:ab:21:72:44:a5:ab:4d:e9:
                    a2:75:22:7d:d6:3b:95:6d:51:72:69:15:6b:50:8f:
                    2e:7d:a3:35:f9:b0:b3:c5:9f
                Exponent: 65537 (0x10001)
        X509v3 extensions:
            X509v3 Key Usage: critical
                Digital Signature, Key Encipherment
            X509v3 Basic Constraints: 
                CA:FALSE
            X509v3 Extended Key Usage: 
                E-mail Protection, TLS Web Client Authentication, Any Extended Key Usage
            X509v3 Subject Key Identifier: 
                3C:FA:14:36:B4:3A:2D:9F:98:98:16:38:3B:64:09:2F:B6:D8:37:B9
            X509v3 Authority Key Identifier: 
                04:1D:3B:2A:4E:79:73:CE:C4:2C:B9:44:5B:CE:6D:F1:EE:BD:9B:8E
            X509v3 Subject Alternative Name: 
                email:nathan.fulleman@hes-so.ch
    Signature Algorithm: sha256WithRSAEncryption
    Signature Value:
        23:63:ce:e4:2c:ed:82:2c:1b:f3:73:66:ea:0f:30:8e:eb:f5:
        cc:e8:86:2a:cf:5c:7f:70:02:4d:6d:79:66:66:da:75:9c:ac:
        d0:18:41:ac:8d:26:19:59:92:a6:38:05:dd:10:66:f4:9b:1a:
        64:80:c5:e8:f1:5d:8f:47:6e:50:dc:db:39:b3:41:dd:f9:00:
        b7:2e:32:d0:04:a7:17:59:dd:df:1d:16:94:9e:6f:ba:7d:cd:
        d5:af:84:9e:b1:e1:14:1e:26:2b:22:c3:3a:2f:e2:d3:fb:e2:
        6f:d2:fc:cb:29:54:17:74:d2:63:9f:e6:0e:6b:2d:fb:7a:03:
        27:7e
-----BEGIN CERTIFICATE-----
MIICkjCCAfugAwIBAgIBCjANBgkqhkiG9w0BAQsFADA5MQswCQYDVQQGEwJDSDEQ
MA4GA1UECgwHSEVJRy1WRDEYMBYGA1UEAwwPRnVsbGVtYW5uLUVtYWlsMB4XDTI1
MDYxMzExMTAzOVoXDTI3MDYxMzExMTAzOVowOTELMAkGA1UEBhMCQ0gxEDAOBgNV
BAoMB0hFSUctVkQxGDAWBgNVBAMMD0Z1bGxlbWFubi1FbWFpbDCBnzANBgkqhkiG
9w0BAQEFAAOBjQAwgYkCgYEAz4cq80nN1G2w9Xw1xxKgQNtgbsCteeiBeYecoxRZ
Z6Av/9vfhNhvbSMI6KiirbVUJ35Aae3AENEh+bBkHv47o/xnGAXcAgiGYRQTWPXf
YBgW1Rg+buPvbb/x9o4PMuouqyFyRKWrTemidSJ91juVbVFyaRVrUI8ufaM1+bCz
xZ8CAwEAAaOBqTCBpjAOBgNVHQ8BAf8EBAMCBaAwCQYDVR0TBAIwADAjBgNVHSUE
HDAaBggrBgEFBQcDBAYIKwYBBQUHAwIGBFUdJQAwHQYDVR0OBBYEFDz6FDa0Oi2f
mJgWODtkCS+22De5MB8GA1UdIwQYMBaAFAQdOypOeXPOxCy5RFvObfHuvZuOMCQG
A1UdEQQdMBuBGW5hdGhhbi5mdWxsZW1hbkBoZXMtc28uY2gwDQYJKoZIhvcNAQEL
BQADgYEAI2PO5Cztgiwb83Nm6g8wjuv1zOiGKs9cf3ACTW15ZmbadZys0BhBrI0m
GVmSpjgF3RBm9JsaZIDF6PFdj0duUNzbObNB3fkAty4y0ASnF1nd3x0WlJ5vun3N
1a+EnrHhFB4mKyLDOi/i0/vib9L8yylUF3TSY5/mDmst+3oDJ34=
-----END CERTIFICATE-----
