Certificate:
    Data:
        Version: 3 (0x2)
        Serial Number: 12 (0xc)
        Signature Algorithm: sha256WithRSAEncryption
        Issuer: C=CH, O=HEIG-VD, CN=Fullemann-TLS
        Validity
            Not Before: Jun 15 11:15:43 2025 GMT
            Not After : Sep 23 11:15:43 2025 GMT
        Subject: C=CH, O=HEIG-VD, CN=secuctfd.iict-heig-vd.in
        Subject Public Key Info:
            Public Key Algorithm: rsaEncryption
                Public-Key: (2048 bit)
                Modulus:
                    00:a0:bb:fa:14:1c:90:e6:d6:d7:73:8a:0c:45:95:
                    8d:0a:a2:73:8f:28:13:ee:62:76:32:9d:1f:60:07:
                    d9:77:99:cc:0f:7a:79:9f:21:44:be:78:df:03:b7:
                    86:80:00:1b:c0:73:f5:d3:95:b3:af:d1:38:be:39:
                    e2:b8:e1:3d:0e:96:56:a7:69:33:99:1f:0a:ef:90:
                    d7:67:e4:38:60:61:d1:74:e7:98:0b:e0:ef:a4:1d:
                    a1:ac:a7:ef:07:75:a0:07:29:72:c0:fa:19:fc:45:
                    9a:d0:3d:3d:ff:74:8a:79:1e:b6:15:e9:66:48:07:
                    c6:8a:0a:df:f3:1b:d6:62:04:ee:d3:27:3f:b4:47:
                    2e:8f:e8:76:bc:78:52:03:0e:83:5b:cd:89:13:5a:
                    39:d5:35:54:9f:6e:cb:f7:5b:76:1f:9b:d1:aa:85:
                    e4:db:73:7b:fe:e8:70:2d:5e:ba:b1:d1:2b:fc:59:
                    53:24:ef:05:78:df:89:a5:74:d1:5a:e2:9e:1d:26:
                    1f:4b:59:f2:be:ab:72:dc:cb:33:a5:62:c4:ff:0b:
                    10:f1:a7:75:dc:98:a7:4b:4a:72:8d:09:0d:47:a6:
                    50:99:07:71:6c:e5:64:5c:af:cd:d6:18:bf:2a:a5:
                    a5:ce:a4:98:96:16:19:b4:45:c9:d1:c4:95:e8:b6:
                    20:4d
                Exponent: 65537 (0x10001)
        X509v3 extensions:
            X509v3 Key Usage: critical
                Digital Signature, Key Encipherment
            X509v3 Extended Key Usage: 
                TLS Web Server Authentication, TLS Web Client Authentication
            X509v3 Subject Key Identifier: 
                F2:C4:22:AA:BA:EC:55:D8:EB:E0:CD:A2:01:76:65:22:CF:88:D4:52
            X509v3 Subject Alternative Name: 
                DNS:secuctfd.iict-heig-vd.in
            X509v3 Authority Key Identifier: 
                A9:E5:10:91:38:79:9E:95:99:B2:DF:8A:A0:F8:70:29:9A:BB:D3:74
    Signature Algorithm: sha256WithRSAEncryption
    Signature Value:
        4a:ad:d4:15:ee:68:bb:49:b7:70:27:79:15:19:b3:ca:70:ac:
        4e:14:4d:82:12:4c:ff:8f:89:29:f0:47:2c:5d:48:58:24:8f:
        f4:61:bb:ea:82:fe:d6:95:63:13:fe:d3:5b:65:be:db:68:cf:
        29:78:6b:94:a4:97:8e:93:f0:28:da:1e:b0:8b:71:ef:3a:06:
        8a:e7:0e:12:f8:62:67:e5:b4:95:04:8b:b7:8f:65:e3:6f:e5:
        45:2d:3a:cc:71:35:88:23:93:ee:02:92:12:74:73:e5:1c:72:
        90:35:47:1a:e6:3a:97:80:22:04:86:0f:c9:9c:99:ac:2a:af:
        6b:07:78:38:41:8b:b0:4f:2d:5d:ed:24:8a:b1:53:a3:8c:f1:
        54:08:6b:34:01:53:fe:1b:ee:8e:97:6d:93:70:ed:b1:7b:51:
        02:e2:19:c1:2c:28:2a:eb:35:bd:a2:97:47:30:4e:b1:ae:a3:
        43:6c:86:a9:e8:dc:ee:8e:95:09:9b:81:70:67:c2:cb:00:2d:
        d5:53:f1:d3:22:34:90:84:25:f8:b3:a4:ef:fa:79:05:87:23:
        55:f0:16:cd:5f:e1:9e:92:39:6f:8f:2f:a3:8b:6e:97:61:d8:
        68:c3:92:01:e5:1d:8b:93:ad:4b:6b:e4:87:78:cd:3e:2f:0b:
        d5:43:9a:ba
-----BEGIN CERTIFICATE-----
MIIDjDCCAnSgAwIBAgIBDDANBgkqhkiG9w0BAQsFADA3MQswCQYDVQQGEwJDSDEQ
MA4GA1UECgwHSEVJRy1WRDEWMBQGA1UEAwwNRnVsbGVtYW5uLVRMUzAeFw0yNTA2
MTUxMTE1NDNaFw0yNTA5MjMxMTE1NDNaMEIxCzAJBgNVBAYTAkNIMRAwDgYDVQQK
DAdIRUlHLVZEMSEwHwYDVQQDDBhzZWN1Y3RmZC5paWN0LWhlaWctdmQuaW4wggEi
MA0GCSqGSIb3DQEBAQUAA4IBDwAwggEKAoIBAQCgu/oUHJDm1tdzigxFlY0KonOP
KBPuYnYynR9gB9l3mcwPenmfIUS+eN8Dt4aAABvAc/XTlbOv0Ti+OeK44T0Ollan
aTOZHwrvkNdn5DhgYdF055gL4O+kHaGsp+8HdaAHKXLA+hn8RZrQPT3/dIp5HrYV
6WZIB8aKCt/zG9ZiBO7TJz+0Ry6P6Ha8eFIDDoNbzYkTWjnVNVSfbsv3W3Yfm9Gq
heTbc3v+6HAtXrqx0Sv8WVMk7wV434mldNFa4p4dJh9LWfK+q3LcyzOlYsT/CxDx
p3XcmKdLSnKNCQ1HplCZB3Fs5WRcr83WGL8qpaXOpJiWFhm0RcnRxJXotiBNAgMB
AAGjgZcwgZQwDgYDVR0PAQH/BAQDAgWgMB0GA1UdJQQWMBQGCCsGAQUFBwMBBggr
BgEFBQcDAjAdBgNVHQ4EFgQU8sQiqrrsVdjr4M2iAXZlIs+I1FIwIwYDVR0RBBww
GoIYc2VjdWN0ZmQuaWljdC1oZWlnLXZkLmluMB8GA1UdIwQYMBaAFKnlEJE4eZ6V
mbLfiqD4cCmau9N0MA0GCSqGSIb3DQEBCwUAA4IBAQBKrdQV7mi7SbdwJ3kVGbPK
cKxOFE2CEkz/j4kp8EcsXUhYJI/0Ybvqgv7WlWMT/tNbZb7baM8peGuUpJeOk/Ao
2h6wi3HvOgaK5w4S+GJn5bSVBIu3j2Xjb+VFLTrMcTWII5PuApISdHPlHHKQNUca
5jqXgCIEhg/JnJmsKq9rB3g4QYuwTy1d7SSKsVOjjPFUCGs0AVP+G+6Ol22TcO2x
e1EC4hnBLCgq6zW9opdHME6xrqNDbIap6NzujpUJm4FwZ8LLAC3VU/HTIjSQhCX4
s6Tv+nkFhyNV8BbNX+Gekjlvjy+ji26XYdhow5IB5R2Lk61La+SHeM0+LwvVQ5q6
-----END CERTIFICATE-----
Certificate:
    Data:
        Version: 3 (0x2)
        Serial Number:
            5e:3d:90:1b:60:49:eb:2d:d0:80:11:bb:1e:b8:80:92:ad:30:55:6b
        Signature Algorithm: sha256WithRSAEncryption
        Issuer: C=CH, O=HEIG-VD, CN=HEIG-VDRoot
        Validity
            Not Before: Jun 15 11:15:08 2025 GMT
            Not After : Jun 15 11:15:08 2035 GMT
        Subject: C=CH, O=HEIG-VD, CN=Fullemann-TLS
        Subject Public Key Info:
            Public Key Algorithm: rsaEncryption
                Public-Key: (2048 bit)
                Modulus:
                    00:c0:26:5e:2e:cd:60:ec:f3:bd:ef:dc:f0:82:a5:
                    46:07:70:0d:9d:33:6c:81:85:8c:97:05:c0:13:61:
                    7c:df:ae:a2:8c:d6:e4:c4:3b:52:c7:2f:c1:7f:3d:
                    90:56:de:63:29:fc:d9:5e:8a:d3:8f:8b:e7:49:af:
                    08:10:69:03:77:1c:9d:a4:a7:ea:8b:9d:d3:c8:e0:
                    ba:10:b2:e0:9c:24:29:aa:35:00:22:10:53:81:9a:
                    36:ee:d3:f7:0e:42:48:6b:9d:f7:77:31:00:1b:fb:
                    a1:94:d0:0b:39:b2:7c:f3:e3:64:1a:7c:0d:9a:6d:
                    41:4c:43:ed:31:d7:3b:ea:73:09:6c:66:9e:7a:28:
                    1d:6d:80:22:cb:cd:51:91:4e:37:d8:00:78:26:ef:
                    af:64:48:78:88:55:6c:de:cb:bb:54:9e:94:25:34:
                    02:6e:29:49:d7:9e:8f:b4:fe:da:c8:31:91:a9:0a:
                    fd:b3:56:d9:a3:ac:e1:63:bc:f1:79:7d:c6:70:ab:
                    0f:85:c7:2f:d9:fd:a0:ea:0b:bd:87:2d:52:53:99:
                    dd:ea:d7:43:a5:b8:d9:9e:ec:be:5a:ae:26:c5:6d:
                    fc:5a:9e:23:56:37:b0:37:a5:f9:13:5a:09:fd:72:
                    2e:76:45:02:6c:83:6d:57:06:8d:ef:a5:9e:c3:ef:
                    ac:01
                Exponent: 65537 (0x10001)
        X509v3 extensions:
            X509v3 Key Usage: critical
                Certificate Sign, CRL Sign
            X509v3 Basic Constraints: critical
                CA:TRUE, pathlen:0
            X509v3 Subject Key Identifier: 
                A9:E5:10:91:38:79:9E:95:99:B2:DF:8A:A0:F8:70:29:9A:BB:D3:74
            X509v3 Authority Key Identifier: 
                B0:0B:BF:2D:D3:44:1C:8B:B0:AD:85:52:A5:15:25:13:0D:B9:D6:70
    Signature Algorithm: sha256WithRSAEncryption
    Signature Value:
        6f:50:5e:3a:84:94:8c:c3:74:ee:16:eb:69:68:87:fb:b1:5d:
        cd:4b:34:5b:96:d4:00:ca:81:23:93:48:f5:b5:eb:b6:81:4b:
        3b:49:bd:cc:5a:da:77:63:4f:66:0f:a4:d1:40:99:26:f0:be:
        88:ff:bc:d0:bf:e2:a3:4c:b5:79:29:31:14:36:e5:a2:d9:ee:
        a5:01:ad:0e:8a:2e:0a:54:c5:dd:51:a5:6c:7c:80:b2:e6:de:
        39:69:8e:f7:a8:72:de:3d:27:08:10:57:d0:ba:45:a9:e8:ab:
        fb:66:3c:7a:04:f7:a2:25:52:d1:6c:f8:fa:91:1f:aa:42:ce:
        9a:4f:a8:79:9a:76:f7:0f:5d:8e:ea:2a:de:88:fa:b7:8e:45:
        9b:76:a1:05:b2:ef:38:8d:08:e6:9f:c0:62:80:81:96:f7:06:
        52:b7:36:20:8b:9c:1f:45:2a:09:61:b0:25:09:39:3e:93:f5:
        5d:7b:f6:f6:46:95:9b:fd:4a:7f:97:f4:e9:1c:68:90:3f:28:
        62:86:c4:2c:bd:8a:03:52:3f:36:5e:5f:d2:e2:25:55:db:04:
        35:61:3c:b0:cb:e9:0d:92:8b:c4:54:7a:54:69:9c:5a:67:10:
        a2:f1:f1:95:ab:0a:9e:70:3e:6a:21:3f:b2:69:37:d7:81:2b:
        63:08:06:6a
-----BEGIN CERTIFICATE-----
MIIDYDCCAkigAwIBAgIUXj2QG2BJ6y3QgBG7HriAkq0wVWswDQYJKoZIhvcNAQEL
BQAwNTELMAkGA1UEBhMCQ0gxEDAOBgNVBAoMB0hFSUctVkQxFDASBgNVBAMMC0hF
SUctVkRSb290MB4XDTI1MDYxNTExMTUwOFoXDTM1MDYxNTExMTUwOFowNzELMAkG
A1UEBhMCQ0gxEDAOBgNVBAoMB0hFSUctVkQxFjAUBgNVBAMMDUZ1bGxlbWFubi1U
TFMwggEiMA0GCSqGSIb3DQEBAQUAA4IBDwAwggEKAoIBAQDAJl4uzWDs873v3PCC
pUYHcA2dM2yBhYyXBcATYXzfrqKM1uTEO1LHL8F/PZBW3mMp/NleitOPi+dJrwgQ
aQN3HJ2kp+qLndPI4LoQsuCcJCmqNQAiEFOBmjbu0/cOQkhrnfd3MQAb+6GU0As5
snzz42QafA2abUFMQ+0x1zvqcwlsZp56KB1tgCLLzVGRTjfYAHgm769kSHiIVWze
y7tUnpQlNAJuKUnXno+0/trIMZGpCv2zVtmjrOFjvPF5fcZwqw+Fxy/Z/aDqC72H
LVJTmd3q10OluNme7L5aribFbfxaniNWN7A3pfkTWgn9ci52RQJsg21XBo3vpZ7D
76wBAgMBAAGjZjBkMA4GA1UdDwEB/wQEAwIBBjASBgNVHRMBAf8ECDAGAQH/AgEA
MB0GA1UdDgQWBBSp5RCROHmelZmy34qg+HApmrvTdDAfBgNVHSMEGDAWgBSwC78t
00Qci7CthVKlFSUTDbnWcDANBgkqhkiG9w0BAQsFAAOCAQEAb1BeOoSUjMN07hbr
aWiH+7FdzUs0W5bUAMqBI5NI9bXrtoFLO0m9zFrad2NPZg+k0UCZJvC+iP+80L/i
o0y1eSkxFDblotnupQGtDoouClTF3VGlbHyAsubeOWmO96hy3j0nCBBX0LpFqeir
+2Y8egT3oiVS0Wz4+pEfqkLOmk+oeZp29w9djuoq3oj6t45Fm3ahBbLvOI0I5p/A
YoCBlvcGUrc2IIucH0UqCWGwJQk5PpP1XXv29kaVm/1Kf5f06RxokD8oYobELL2K
A1I/Nl5f0uIlVdsENWE8sMvpDZKLxFR6VGmcWmcQovHxlasKnnA+aiE/smk314Er
YwgGag==
-----END CERTIFICATE-----
Certificate:
    Data:
        Version: 3 (0x2)
        Serial Number:
            6c:b3:be:16:a8:6b:92:55:ba:63:38:8c:55:59:89:dc:7d:87:1c:2b
        Signature Algorithm: sha256WithRSAEncryption
        Issuer: C=CH, O=HEIG-VD, CN=HEIG-VDRoot
        Validity
            Not Before: May 22 10:41:08 2025 GMT
            Not After : Dec 31 23:59:59 2030 GMT
        Subject: C=CH, O=HEIG-VD, CN=HEIG-VDRoot
        Subject Public Key Info:
            Public Key Algorithm: rsaEncryption
                Public-Key: (2048 bit)
                Modulus:
                    00:c2:3c:b5:ff:94:79:e3:4c:01:27:87:1a:92:ae:
                    2a:0a:85:b6:23:27:82:0b:80:95:ef:b8:d3:0a:fc:
                    5d:e4:a5:e3:6d:1d:01:3f:c6:cb:88:b2:37:9d:da:
                    72:fc:8a:d4:44:73:a1:e9:a5:4c:1e:a2:21:ba:fe:
                    ba:8c:2e:59:f9:93:eb:e2:bd:18:c5:2b:e3:2e:6d:
                    ff:3d:bd:6c:15:27:b3:2b:3f:89:33:6d:84:dd:34:
                    15:e7:11:37:ce:e3:75:38:47:1b:14:e4:07:fb:11:
                    1c:c8:2d:22:90:1d:99:3a:b6:dc:be:83:c2:14:2a:
                    99:b8:56:36:72:f0:98:6b:6f:0e:bd:b2:9a:b6:94:
                    4f:65:09:a1:73:14:ec:bc:17:c9:e2:82:20:d4:fb:
                    94:20:72:d5:75:ee:02:21:23:f3:99:ad:53:d8:09:
                    5f:63:dd:4c:59:bb:de:7f:c1:4a:ad:4d:fe:d2:28:
                    37:72:8e:e3:90:ec:28:ff:5e:96:44:21:0e:5c:e8:
                    7e:dd:ba:de:33:e2:99:0f:41:3b:7d:81:88:ca:ac:
                    5d:00:cf:aa:b9:fd:15:15:02:74:2c:9e:0c:5e:2d:
                    3d:8d:6c:7e:9a:e2:e2:b4:3e:db:4e:c0:84:c8:e3:
                    af:25:49:40:18:2a:a4:28:34:7e:da:b7:db:a6:7a:
                    a6:f9
                Exponent: 65537 (0x10001)
        X509v3 extensions:
            X509v3 Key Usage: critical
                Certificate Sign, CRL Sign
            X509v3 Basic Constraints: critical
                CA:TRUE
            X509v3 Subject Key Identifier: 
                B0:0B:BF:2D:D3:44:1C:8B:B0:AD:85:52:A5:15:25:13:0D:B9:D6:70
            X509v3 Authority Key Identifier: 
                B0:0B:BF:2D:D3:44:1C:8B:B0:AD:85:52:A5:15:25:13:0D:B9:D6:70
    Signature Algorithm: sha256WithRSAEncryption
    Signature Value:
        b7:03:b7:9b:67:f8:dd:64:51:54:ab:db:c1:e1:09:41:f5:31:
        aa:3c:08:04:be:6b:5b:b5:63:57:2d:57:3e:48:51:d7:9b:8c:
        51:5b:65:27:30:5c:72:09:fc:be:40:56:be:d0:9a:1c:79:50:
        f3:69:28:d6:c6:e3:2b:83:da:d1:ae:ef:71:22:66:28:2f:79:
        e9:ac:e0:f2:4b:db:57:7b:2f:0a:98:19:36:17:f2:3b:6a:74:
        c0:b7:85:29:30:ea:95:ab:f6:a4:a4:77:67:df:f2:7e:c0:0e:
        cc:b2:cc:21:64:5e:13:e2:1b:d1:3a:50:c4:79:52:47:fc:8f:
        ca:b4:f6:51:f1:b5:e3:ed:24:c4:12:d1:ab:4a:74:88:9a:97:
        c0:58:bc:62:07:7e:fe:7f:60:bb:c4:cf:b7:68:b1:c9:99:f8:
        f2:af:7e:4f:f4:b3:32:24:e6:b0:6a:8e:59:07:85:98:ea:8d:
        e3:da:be:be:7d:c2:63:d7:bd:a3:e0:7b:05:8d:33:af:9e:02:
        50:d0:09:b5:2a:d8:df:54:fd:0d:49:09:a8:d8:7c:d4:29:56:
        e2:b1:6f:8f:31:e9:bf:a6:d1:02:30:22:b8:78:57:34:77:81:
        c7:b2:57:e4:9a:16:33:d2:fc:4f:0e:47:d7:e0:0c:c4:5f:14:
        0f:4b:6d:c5
-----BEGIN CERTIFICATE-----
MIIDWzCCAkOgAwIBAgIUbLO+FqhrklW6YziMVVmJ3H2HHCswDQYJKoZIhvcNAQEL
BQAwNTELMAkGA1UEBhMCQ0gxEDAOBgNVBAoMB0hFSUctVkQxFDASBgNVBAMMC0hF
SUctVkRSb290MB4XDTI1MDUyMjEwNDEwOFoXDTMwMTIzMTIzNTk1OVowNTELMAkG
A1UEBhMCQ0gxEDAOBgNVBAoMB0hFSUctVkQxFDASBgNVBAMMC0hFSUctVkRSb290
MIIBIjANBgkqhkiG9w0BAQEFAAOCAQ8AMIIBCgKCAQEAwjy1/5R540wBJ4cakq4q
CoW2IyeCC4CV77jTCvxd5KXjbR0BP8bLiLI3ndpy/IrURHOh6aVMHqIhuv66jC5Z
+ZPr4r0YxSvjLm3/Pb1sFSezKz+JM22E3TQV5xE3zuN1OEcbFOQH+xEcyC0ikB2Z
OrbcvoPCFCqZuFY2cvCYa28OvbKatpRPZQmhcxTsvBfJ4oIg1PuUIHLVde4CISPz
ma1T2AlfY91MWbvef8FKrU3+0ig3co7jkOwo/16WRCEOXOh+3breM+KZD0E7fYGI
yqxdAM+quf0VFQJ0LJ4MXi09jWx+muLitD7bTsCEyOOvJUlAGCqkKDR+2rfbpnqm
+QIDAQABo2MwYTAOBgNVHQ8BAf8EBAMCAQYwDwYDVR0TAQH/BAUwAwEB/zAdBgNV
HQ4EFgQUsAu/LdNEHIuwrYVSpRUlEw251nAwHwYDVR0jBBgwFoAUsAu/LdNEHIuw
rYVSpRUlEw251nAwDQYJKoZIhvcNAQELBQADggEBALcDt5tn+N1kUVSr28HhCUH1
Mao8CAS+a1u1Y1ctVz5IUdebjFFbZScwXHIJ/L5AVr7Qmhx5UPNpKNbG4yuD2tGu
73EiZigveems4PJL21d7LwqYGTYX8jtqdMC3hSkw6pWr9qSkd2ff8n7ADsyyzCFk
XhPiG9E6UMR5Ukf8j8q09lHxtePtJMQS0atKdIial8BYvGIHfv5/YLvEz7doscmZ
+PKvfk/0szIk5rBqjlkHhZjqjePavr59wmPXvaPgewWNM6+eAlDQCbUq2N9U/Q1J
CajYfNQpVuKxb48x6b+m0QIwIrh4VzR3gceyV+SaFjPS/E8OR9fgDMRfFA9LbcU=
-----END CERTIFICATE-----
