Certificate:
    Data:
        Version: 3 (0x2)
        Serial Number:
            5e:3d:90:1b:60:49:eb:2d:d0:80:11:bb:1e:b8:80:92:ad:30:55:40
        Signature Algorithm: sha256WithRSAEncryption
        Issuer: C=CH, O=HEIG-VD, CN=HEIG-VDRoot
        Validity
            Not Before: Jun 13 11:08:03 2025 GMT
            Not After : Jun 13 11:08:03 2035 GMT
        Subject: C=CH, O=HEIG-VD, CN=Fullemann-Email
        Subject Public Key Info:
            Public Key Algorithm: rsaEncryption
                Public-Key: (1024 bit)
                Modulus:
                    00:ca:06:39:92:f8:29:8a:2f:04:ac:b2:39:eb:f0:
                    f6:2f:9e:f6:2c:45:74:75:0f:d3:bd:a3:2c:b1:a9:
                    06:5b:b5:6e:ce:cc:22:96:72:fd:9d:8d:95:f9:e9:
                    68:f8:43:e7:2c:10:0b:e1:14:d4:e3:96:85:58:6c:
                    4a:7e:74:eb:ae:45:c9:b9:b3:f0:be:88:ae:01:28:
                    88:32:e7:40:a9:41:cc:b9:cc:34:0d:fe:0e:36:e6:
                    ea:44:ac:a2:fa:be:37:48:66:c3:0c:04:13:47:4f:
                    ea:0d:13:45:33:d4:42:b6:63:6c:89:92:1f:ca:53:
                    94:77:8b:ad:e7:9c:f0:65:19
                Exponent: 65537 (0x10001)
        X509v3 extensions:
            X509v3 Key Usage: critical
                Certificate Sign, CRL Sign
            X509v3 Basic Constraints: critical
                CA:TRUE, pathlen:0
            X509v3 Subject Key Identifier: 
                04:1D:3B:2A:4E:79:73:CE:C4:2C:B9:44:5B:CE:6D:F1:EE:BD:9B:8E
            X509v3 Authority Key Identifier: 
                B0:0B:BF:2D:D3:44:1C:8B:B0:AD:85:52:A5:15:25:13:0D:B9:D6:70
    Signature Algorithm: sha256WithRSAEncryption
    Signature Value:
        bb:98:81:2c:f5:2f:a5:d1:36:a7:e0:70:0e:9d:34:f0:81:ba:
        c0:6f:0f:14:1b:1c:00:a4:d0:46:82:39:dc:be:b2:67:04:fb:
        af:37:19:6d:90:b2:d0:c2:c5:ef:a1:29:42:94:3d:e4:52:48:
        53:bc:b0:9c:fb:04:b4:88:22:52:4c:91:4c:25:08:ba:ad:12:
        10:c3:b0:57:4b:20:76:7b:e4:6a:cc:01:f8:b5:ff:dd:6b:d8:
        9c:36:b4:e1:0d:9b:dd:9b:54:17:d3:33:17:e7:ac:2e:3e:ab:
        67:73:e2:b3:6f:7a:e4:ad:87:06:74:22:70:a8:6c:27:11:26:
        6b:6a:c6:4b:d6:06:21:10:57:c6:4d:30:23:f5:70:db:a7:ea:
        74:3b:09:60:25:c8:0e:c6:3a:cc:db:1c:1b:a8:9f:d4:6d:45:
        9a:f8:4b:45:3a:0f:2f:30:f2:92:44:ca:53:10:1d:14:61:49:
        9d:a3:f6:f2:43:69:4d:2c:5d:21:c2:fe:96:7a:15:fd:56:bb:
        2e:33:ef:12:09:64:b9:45:73:c2:f3:86:29:59:80:0b:5a:fc:
        c0:f6:20:e1:20:0a:cf:b0:ef:a4:fa:97:28:a9:0f:1f:8a:8a:
        3a:c2:2d:e8:b6:12:d3:79:01:23:6c:98:44:b3:2d:f2:22:18:
        f9:ff:16:c5
-----BEGIN CERTIFICATE-----
MIIC3jCCAcagAwIBAgIUXj2QG2BJ6y3QgBG7HriAkq0wVUAwDQYJKoZIhvcNAQEL
BQAwNTELMAkGA1UEBhMCQ0gxEDAOBgNVBAoMB0hFSUctVkQxFDASBgNVBAMMC0hF
SUctVkRSb290MB4XDTI1MDYxMzExMDgwM1oXDTM1MDYxMzExMDgwM1owOTELMAkG
A1UEBhMCQ0gxEDAOBgNVBAoMB0hFSUctVkQxGDAWBgNVBAMMD0Z1bGxlbWFubi1F
bWFpbDCBnzANBgkqhkiG9w0BAQEFAAOBjQAwgYkCgYEAygY5kvgpii8ErLI56/D2
L572LEV0dQ/TvaMssakGW7VuzswilnL9nY2V+elo+EPnLBAL4RTU45aFWGxKfnTr
rkXJubPwvoiuASiIMudAqUHMucw0Df4ONubqRKyi+r43SGbDDAQTR0/qDRNFM9RC
tmNsiZIfylOUd4ut55zwZRkCAwEAAaNmMGQwDgYDVR0PAQH/BAQDAgEGMBIGA1Ud
EwEB/wQIMAYBAf8CAQAwHQYDVR0OBBYEFAQdOypOeXPOxCy5RFvObfHuvZuOMB8G
A1UdIwQYMBaAFLALvy3TRByLsK2FUqUVJRMNudZwMA0GCSqGSIb3DQEBCwUAA4IB
AQC7mIEs9S+l0Tan4HAOnTTwgbrAbw8UGxwApNBGgjncvrJnBPuvNxltkLLQwsXv
oSlClD3kUkhTvLCc+wS0iCJSTJFMJQi6rRIQw7BXSyB2e+RqzAH4tf/da9icNrTh
DZvdm1QX0zMX56wuPqtnc+Kzb3rkrYcGdCJwqGwnESZrasZL1gYhEFfGTTAj9XDb
p+p0OwlgJcgOxjrM2xwbqJ/UbUWa+EtFOg8vMPKSRMpTEB0UYUmdo/byQ2lNLF0h
wv6WehX9VrsuM+8SCWS5RXPC84YpWYALWvzA9iDhIArPsO+k+pcoqQ8fioo6wi3o
thLTeQEjbJhEsy3yIhj5/xbF
-----END CERTIFICATE-----
